LIBRARY   LIBDJVUD
EXPORTS
   ??0?$GP@VByteStream@@@@QAE@ABV0@@Z   @1
   ??0?$GP@VZPCodec@@@@QAE@ABV0@@Z   @2
   ??0?$GP@VZPCodec@@@@QAE@XZ   @3
   ??0Decode@ZPCodec@@QAE@V?$GP@VByteStream@@@@_N@Z   @4
   ??0Encode@ZPCodec@@QAE@V?$GP@VByteStream@@@@_N@Z   @5
   ??0GPBase@@QAE@ABV0@@Z   @6
   ??0GPBase@@QAE@XZ   @7
   ??0GPEnabled@@QAE@XZ   @8
   ??0ZPCodec@@IAE@V?$GP@VByteStream@@@@_N1@Z   @9
   ??1?$GP@VByteStream@@@@QAE@XZ   @10
   ??1?$GP@VZPCodec@@@@QAE@XZ   @11
   ??1Decode@ZPCodec@@UAE@XZ   @12
   ??1Encode@ZPCodec@@UAE@XZ   @13
   ??1GPBase@@QAE@XZ   @14
   ??1ZPCodec@@UAE@XZ   @15
   ??4?$GP@VZPCodec@@@@QAEAAV0@PAVZPCodec@@@Z   @16
   ??B?$GP@VByteStream@@@@QBEPAVByteStream@@XZ   @17
   ?create@ZPCodec@@SA?AV?$GP@VZPCodec@@@@V?$GP@VByteStream@@@@_N1@Z   @18
   ?decode_sub@ZPCodec@@IAEHAAEI@Z   @19
   ?decode_sub_nolearn@ZPCodec@@IAEHHI@Z   @20
   ?decode_sub_simple@ZPCodec@@IAEHHI@Z   @21
   ?eflush@ZPCodec@@IAEXXZ   @22
   ?encode_lps@ZPCodec@@IAEXAAEI@Z   @23
   ?encode_lps_nolearn@ZPCodec@@IAEXI@Z   @24
   ?encode_lps_simple@ZPCodec@@IAEXI@Z   @25
   ?encode_mps@ZPCodec@@IAEXAAEI@Z   @26
   ?encode_mps_nolearn@ZPCodec@@IAEXI@Z   @27
   ?encode_mps_simple@ZPCodec@@IAEXI@Z   @28
   ?ffz@ZPCodec@@IAEHI@Z   @29
   ?init@Decode@ZPCodec@@AAEXXZ   @30
   ?init@Encode@ZPCodec@@AAEXXZ   @31
   ?newtable@ZPCodec@@QAEXPAUTable@1@@Z   @32
   ?outbit@ZPCodec@@IAEXH@Z   @33
   ?preload@ZPCodec@@IAEXXZ   @34
   ?state@ZPCodec@@QAEEM@Z   @35
   ?zemit@ZPCodec@@IAEXH@Z   @36
   ??0?$GList@Vlt_XMLContents@@@@QAE@XZ   @37
   ??0?$GListImpl@VGPBase@@@@IAE@XZ   @38
   ??0?$GListImpl@VGPBase@@@@QAE@ABV0@@Z   @39
   ??0?$GListImpl@Vlt_XMLContents@@@@IAE@XZ   @40
   ??0?$GListTemplate@V?$GP@Vlt_XMLTags@@@@VGPBase@@@@QAE@ABV0@@Z   @41
   ??0?$GListTemplate@V?$GP@Vlt_XMLTags@@@@VGPBase@@@@QAE@XZ   @42
   ??0?$GListTemplate@Vlt_XMLContents@@V1@@@QAE@XZ   @43
   ??0?$GMap@VGUTF8String@@V1@@@QAE@XZ   @44
   ??0?$GMap@VGUTF8String@@V?$GPList@Vlt_XMLTags@@@@@@QAE@XZ   @45
   ??0?$GMapImpl@VGUTF8String@@V1@@@IAE@XZ   @46
   ??0?$GMapImpl@VGUTF8String@@V?$GPList@Vlt_XMLTags@@@@@@IAE@XZ   @47
   ??0?$GMapTemplate@VGUTF8String@@V1@V1@@@QAE@XZ   @48
   ??0?$GMapTemplate@VGUTF8String@@V?$GPList@Vlt_XMLTags@@@@V2@@@QAE@XZ   @49
   ??0?$GP@VGStringRep@@@@QAE@XZ   @50
   ??0?$GP@Vlt_XMLTags@@@@QAE@ABV0@@Z   @51
   ??0?$GP@Vlt_XMLTags@@@@QAE@XZ   @52
   ??0?$GPList@Vlt_XMLTags@@@@QAE@ABV0@@Z   @53
   ??0?$GPList@Vlt_XMLTags@@@@QAE@XZ   @54
   ??0?$GSetImpl@VGUTF8String@@@@IAE@ABUTraits@@@Z   @55
   ??0?$ListNode@VGPBase@@@@QAE@ABU0@@Z   @56
   ??0?$ListNode@VGPBase@@@@QAE@XZ   @57
   ??0?$ListNode@Vlt_XMLContents@@@@QAE@ABU0@@Z   @58
   ??0?$ListNode@Vlt_XMLContents@@@@QAE@XZ   @59
   ??0?$MapNode@VGUTF8String@@V1@@@QAE@ABU0@@Z   @60
   ??0?$MapNode@VGUTF8String@@V1@@@QAE@XZ   @61
   ??0?$MapNode@VGUTF8String@@V?$GPList@Vlt_XMLTags@@@@@@QAE@ABU0@@Z   @62
   ??0?$MapNode@VGUTF8String@@V?$GPList@Vlt_XMLTags@@@@@@QAE@XZ   @63
   ??0?$SetNode@VGUTF8String@@@@QAE@ABU0@@Z   @64
   ??0?$SetNode@VGUTF8String@@@@QAE@XZ   @65
   ??0GBaseString@@IAE@XZ   @66
   ??0GPosition@@QAE@ABV0@@Z   @67
   ??0GPosition@@QAE@PAUNode@@PAX@Z   @68
   ??0GPosition@@QAE@XZ   @69
   ??0GUTF8String@@QAE@ABV0@@Z   @70
   ??0GUTF8String@@QAE@ABV?$GP@VGStringRep@@@@@Z   @71
   ??0GUTF8String@@QAE@XZ   @72
   ??0lt_XMLContents@@QAE@ABV0@@Z   @73
   ??0lt_XMLContents@@QAE@V?$GP@Vlt_XMLTags@@@@@Z   @74
   ??0lt_XMLContents@@QAE@XZ   @75
   ??0lt_XMLTags@@IAE@QBD@Z   @76
   ??0lt_XMLTags@@IAE@XZ   @77
   ??1?$GList@Vlt_XMLContents@@@@QAE@XZ   @78
   ??1?$GListImpl@VGPBase@@@@QAE@XZ   @79
   ??1?$GListImpl@Vlt_XMLContents@@@@QAE@XZ   @80
   ??1?$GListTemplate@V?$GP@Vlt_XMLTags@@@@VGPBase@@@@QAE@XZ   @81
   ??1?$GListTemplate@Vlt_XMLContents@@V1@@@QAE@XZ   @82
   ??1?$GMap@VGUTF8String@@V1@@@QAE@XZ   @83
   ??1?$GMap@VGUTF8String@@V?$GPList@Vlt_XMLTags@@@@@@QAE@XZ   @84
   ??1?$GMapImpl@VGUTF8String@@V1@@@QAE@XZ   @85
   ??1?$GMapImpl@VGUTF8String@@V?$GPList@Vlt_XMLTags@@@@@@QAE@XZ   @86
   ??1?$GMapTemplate@VGUTF8String@@V1@V1@@@QAE@XZ   @87
   ??1?$GMapTemplate@VGUTF8String@@V?$GPList@Vlt_XMLTags@@@@V2@@@QAE@XZ   @88
   ??1?$GP@VGStringRep@@@@QAE@XZ   @89
   ??1?$GP@VXMLByteStream@@@@QAE@XZ   @90
   ??1?$GP@Vlt_XMLTags@@@@QAE@XZ   @91
   ??1?$GPList@Vlt_XMLTags@@@@QAE@XZ   @92
   ??1?$GSetImpl@VGUTF8String@@@@QAE@XZ   @93
   ??1?$ListNode@VGPBase@@@@QAE@XZ   @94
   ??1?$ListNode@Vlt_XMLContents@@@@QAE@XZ   @95
   ??1?$MapNode@VGUTF8String@@V1@@@QAE@XZ   @96
   ??1?$MapNode@VGUTF8String@@V?$GPList@Vlt_XMLTags@@@@@@QAE@XZ   @97
   ??1?$SetNode@VGUTF8String@@@@QAE@XZ   @98
   ??1lt_XMLContents@@QAE@XZ   @99
   ??1lt_XMLTags@@UAE@XZ   @100
   ??2@YAPAXIPAX@Z   @101
   ??3@YAXPAX0@Z   @102
   ??4?$GP@VGStringRep@@@@QAEAAV0@ABV0@@Z   @103
   ??4?$GP@Vlt_XMLTags@@@@QAEAAV0@ABV0@@Z   @104
   ??4?$GP@Vlt_XMLTags@@@@QAEAAV0@PAVlt_XMLTags@@@Z   @105
   ??4GUTF8String@@QAEAAV0@ABV0@@Z   @106
   ??8GBaseString@@QBE_NABV0@@Z   @107
   ??8GBaseString@@QBE_NPBD@Z   @108
   ??9GBaseString@@QBE_NABV0@@Z   @109
   ??9GBaseString@@QBE_NPBD@Z   @110
   ??A?$GListTemplate@V?$GP@Vlt_XMLTags@@@@VGPBase@@@@QAEAAV?$GP@Vlt_XMLTags@@@@VGPosition@@@Z   @111
   ??A?$GListTemplate@Vlt_XMLContents@@V1@@@QAEAAVlt_XMLContents@@VGPosition@@@Z   @112
   ??A?$GListTemplate@Vlt_XMLContents@@V1@@@QBEABVlt_XMLContents@@VGPosition@@@Z   @113
   ??A?$GMapTemplate@VGUTF8String@@V1@V1@@@QAEAAVGUTF8String@@ABV1@@Z   @114
   ??A?$GMapTemplate@VGUTF8String@@V1@V1@@@QAEAAVGUTF8String@@ABVGPosition@@@Z   @115
   ??A?$GMapTemplate@VGUTF8String@@V1@V1@@@QBEABVGUTF8String@@ABVGPosition@@@Z   @116
   ??A?$GMapTemplate@VGUTF8String@@V?$GP@Vlt_XMLTags@@@@V2@@@QAEAAV?$GP@Vlt_XMLTags@@@@ABVGUTF8String@@@Z   @117
   ??A?$GMapTemplate@VGUTF8String@@V?$GPList@Vlt_XMLTags@@@@V2@@@QAEAAV?$GPList@Vlt_XMLTags@@@@ABVGUTF8String@@@Z   @118
   ??A?$GMapTemplate@VGUTF8String@@V?$GPList@Vlt_XMLTags@@@@V2@@@QBEABV?$GPList@Vlt_XMLTags@@@@ABVGPosition@@@Z   @119
   ??AGBaseString@@QBEDH@Z   @120
   ??Alt_XMLTags@@QBEABV?$GPList@Vlt_XMLTags@@@@ABVGPosition@@@Z   @121
   ??B?$GListTemplate@V?$GP@Vlt_XMLTags@@@@VGPBase@@@@QBE?AVGPosition@@XZ   @122
   ??B?$GListTemplate@Vlt_XMLContents@@V1@@@QBE?AVGPosition@@XZ   @123
   ??B?$GMapTemplate@VGUTF8String@@V1@V1@@@QBE?AVGPosition@@XZ   @124
   ??B?$GP@VGStringRep@@@@QBEPAVGStringRep@@XZ   @125
   ??B?$GP@Vlt_XMLTags@@@@QBEPAVlt_XMLTags@@XZ   @126
   ??BGBaseString@@QBEPBDXZ   @127
   ??BGPosition@@QBEHXZ   @128
   ??C?$GP@VGStringRep@@@@QBEPAVGStringRep@@XZ   @129
   ??C?$GP@Vlt_XMLTags@@@@QBEPAVlt_XMLTags@@XZ   @130
   ??D?$GP@VXMLByteStream@@@@QBEAAVXMLByteStream@@XZ   @131
   ??D?$GP@Vlt_XMLTags@@@@QBEAAVlt_XMLTags@@XZ   @132
   ??EGPosition@@QAEAAV0@XZ   @133
   ?CheckSubscript@GBaseString@@IBEHH@Z   @134
   ?ParseValues@lt_XMLTags@@SAXPBDAAV?$GMap@VGUTF8String@@V1@@@_N@Z   @135
   ?addraw@lt_XMLTags@@QAEXVGUTF8String@@@Z   @136
   ?addtag@lt_XMLTags@@QAEXV?$GP@Vlt_XMLTags@@@@@Z   @137
   ?append@?$GListTemplate@V?$GP@Vlt_XMLTags@@@@VGPBase@@@@QAEXABV?$GP@Vlt_XMLTags@@@@@Z   @138
   ?append@?$GListTemplate@Vlt_XMLContents@@V1@@@QAEXABVlt_XMLContents@@@Z   @139
   ?check@GPosition@@QAEPAUNode@@PAX@Z   @140
   ?check@GPosition@@QBEPBUNode@@PAX@Z   @141
   ?cmp@GBaseString@@QBEHABV1@H@Z   @142
   ?cmp@GBaseString@@QBEHPBDH@Z   @143
   ?contains@?$GMapTemplate@VGUTF8String@@V1@V1@@@QBE?AVGPosition@@ABVGUTF8String@@@Z   @144
   ?contains@?$GMapTemplate@VGUTF8String@@V?$GPList@Vlt_XMLTags@@@@V2@@@QBE?AVGPosition@@ABVGUTF8String@@@Z   @145
   ?contains@?$GSetImpl@VGUTF8String@@@@QBE?AVGPosition@@ABVGUTF8String@@@Z   @146
   ?contains@lt_XMLTags@@QBE?AVGPosition@@VGUTF8String@@@Z   @147
   ?copy@?$NormTraits@U?$ListNode@VGPBase@@@@@@SAXPAXPBXHH@Z   @148
   ?copy@?$NormTraits@U?$ListNode@Vlt_XMLContents@@@@@@SAXPAXPBXHH@Z   @149
   ?copy@?$NormTraits@U?$MapNode@VGUTF8String@@V1@@@@@SAXPAXPBXHH@Z   @150
   ?copy@?$NormTraits@U?$MapNode@VGUTF8String@@V?$GPList@Vlt_XMLTags@@@@@@@@SAXPAXPBXHH@Z   @151
   ?del@?$GListTemplate@V?$GP@Vlt_XMLTags@@@@VGPBase@@@@QAEXAAVGPosition@@@Z   @152
   ?downcase@GUTF8String@@QBE?AV1@XZ   @153
   ?fini@?$NormTraits@U?$ListNode@VGPBase@@@@@@SAXPAXH@Z   @154
   ?fini@?$NormTraits@U?$ListNode@Vlt_XMLContents@@@@@@SAXPAXH@Z   @155
   ?fini@?$NormTraits@U?$MapNode@VGUTF8String@@V1@@@@@SAXPAXH@Z   @156
   ?fini@?$NormTraits@U?$MapNode@VGUTF8String@@V?$GPList@Vlt_XMLTags@@@@@@@@SAXPAXH@Z   @157
   ?firstpos@?$GListTemplate@V?$GP@Vlt_XMLTags@@@@VGPBase@@@@QBE?AVGPosition@@XZ   @158
   ?firstpos@?$GListTemplate@Vlt_XMLContents@@V1@@@QBE?AVGPosition@@XZ   @159
   ?firstpos@?$GMapTemplate@VGUTF8String@@V1@V1@@@QBE?AVGPosition@@XZ   @160
   ?firstpos@GListBase@@QBE?AVGPosition@@XZ   @161
   ?get@?$GSetImpl@VGUTF8String@@@@IBEPAUHNode@@ABVGUTF8String@@@Z   @162
   ?get_Line@lt_XMLTags@@QBEHXZ   @163
   ?get_Maps@lt_XMLTags@@SAXQBD0V?$GPList@Vlt_XMLTags@@@@AAV?$GMap@VGUTF8String@@V?$GP@Vlt_XMLTags@@@@@@@Z   @164
   ?get_Tags@lt_XMLTags@@QBE?AV?$GPList@Vlt_XMLTags@@@@QBD@Z   @165
   ?get_count@GPEnabled@@QBEHXZ   @166
   ?get_lines_read@UnicodeByteStream@@QBEHXZ   @167
   ?get_or_create@?$GMapImpl@VGUTF8String@@V1@@@IAEPAUHNode@@ABVGUTF8String@@@Z   @168
   ?get_or_create@?$GMapImpl@VGUTF8String@@V?$GP@Vlt_XMLTags@@@@@@IAEPAUHNode@@ABVGUTF8String@@@Z   @169
   ?get_or_create@?$GMapImpl@VGUTF8String@@V?$GPList@Vlt_XMLTags@@@@@@IAEPAUHNode@@ABVGUTF8String@@@Z   @170
   ?init@?$NormTraits@U?$ListNode@VGPBase@@@@@@SAXPAXH@Z   @171
   ?init@?$NormTraits@U?$ListNode@Vlt_XMLContents@@@@@@SAXPAXH@Z   @172
   ?init@?$NormTraits@U?$MapNode@VGUTF8String@@V1@@@@@SAXPAXH@Z   @173
   ?init@?$NormTraits@U?$MapNode@VGUTF8String@@V?$GPList@Vlt_XMLTags@@@@@@@@SAXPAXH@Z   @174
   ?init@GBaseString@@IAEXXZ   @175
   ?init@GUTF8String@@QAEAAV1@ABV?$GP@VGStringRep@@@@@Z   @176
   ?init@GUTF8String@@QAEXXZ   @177
   ?init@lt_XMLTags@@QAEXAAVXMLByteStream@@@Z   @178
   ?init@lt_XMLTags@@QAEXABV?$GP@VByteStream@@@@@Z   @179
   ?init@lt_XMLTags@@QAEXABVGURL@@@Z   @180
   ?key@?$GMapTemplate@VGUTF8String@@V1@V1@@@QBEABVGUTF8String@@ABVGPosition@@@Z   @181
   ?lastpos@?$GListTemplate@V?$GP@Vlt_XMLTags@@@@VGPBase@@@@QBE?AVGPosition@@XZ   @182
   ?lastpos@GListBase@@QBE?AVGPosition@@XZ   @183
   ?lea@?$NormTraits@U?$ListNode@VGPBase@@@@@@SAPAXPAXH@Z   @184
   ?lea@?$NormTraits@U?$ListNode@Vlt_XMLContents@@@@@@SAPAXPAXH@Z   @185
   ?lea@?$NormTraits@U?$MapNode@VGUTF8String@@V1@@@@@SAPAXPAXH@Z   @186
   ?lea@?$NormTraits@U?$MapNode@VGUTF8String@@V?$GPList@Vlt_XMLTags@@@@@@@@SAPAXPAXH@Z   @187
   ?length@GBaseString@@QBEIXZ   @188
   ?newnode@?$GListImpl@VGPBase@@@@KAPAUNode@@ABVGPBase@@@Z   @189
   ?newnode@?$GListImpl@Vlt_XMLContents@@@@KAPAUNode@@ABVlt_XMLContents@@@Z   @190
   ?nextNonSpace@GBaseString@@QBEHHH@Z   @191
   ?set_Line@lt_XMLTags@@QAEXH@Z   @192
   ?theTraits@?1??traits@?$NormTraits@U?$ListNode@VGPBase@@@@@@SAABUTraits@@XZ@4U3@B   @193
   ?theTraits@?1??traits@?$NormTraits@U?$ListNode@Vlt_XMLContents@@@@@@SAABUTraits@@XZ@4U3@B   @194
   ?theTraits@?1??traits@?$NormTraits@U?$MapNode@VGUTF8String@@V1@@@@@SAABUTraits@@XZ@4U3@B   @195
   ?theTraits@?1??traits@?$NormTraits@U?$MapNode@VGUTF8String@@V?$GPList@Vlt_XMLTags@@@@@@@@SAABUTraits@@XZ@4U3@B   @196
   ?toEscaped@GUTF8String@@QBE?AV1@_N@Z   @197
   ?traits@?$NormTraits@U?$ListNode@VGPBase@@@@@@SAABUTraits@@XZ   @198
   ?traits@?$NormTraits@U?$ListNode@Vlt_XMLContents@@@@@@SAABUTraits@@XZ   @199
   ?traits@?$NormTraits@U?$MapNode@VGUTF8String@@V1@@@@@SAABUTraits@@XZ   @200
   ?traits@?$NormTraits@U?$MapNode@VGUTF8String@@V?$GPList@Vlt_XMLTags@@@@@@@@SAABUTraits@@XZ   @201
   ?upcase@GUTF8String@@QBE?AV1@XZ   @202
   ?write@lt_XMLContents@@QBEXAAVByteStream@@@Z   @203
   ?write@lt_XMLTags@@QBEXAAVByteStream@@_N@Z   @204
   ??0?$GList@H@@QAE@XZ   @205
   ??0?$GListImpl@H@@IAE@XZ   @206
   ??0?$GListTemplate@HH@@QAE@XZ   @207
   ??0?$GMap@VGUTF8String@@V1@@@QAE@ABV0@@Z   @208
   ??0?$GMap@VGUTF8String@@V?$GP@VDjVuDocument@@@@@@QAE@XZ   @209
   ??0?$GMap@VGUTF8String@@V?$GP@VDjVuFile@@@@@@QAE@XZ   @210
   ??0?$GMap@VGUTF8String@@V?$GP@Vlt_XMLTags@@@@@@QAE@XZ   @211
   ??0?$GMap@VGUTF8String@@W4BorderType@GMapArea@@@@QAE@ABV0@@Z   @212
   ??0?$GMap@VGUTF8String@@W4BorderType@GMapArea@@@@QAE@XZ   @213
   ??0?$GMapImpl@VGUTF8String@@V1@@@QAE@ABV0@@Z   @214
   ??0?$GMapImpl@VGUTF8String@@V?$GP@VDjVuDocument@@@@@@IAE@XZ   @215
   ??0?$GMapImpl@VGUTF8String@@V?$GP@VDjVuFile@@@@@@IAE@XZ   @216
   ??0?$GMapImpl@VGUTF8String@@V?$GP@Vlt_XMLTags@@@@@@IAE@XZ   @217
   ??0?$GMapImpl@VGUTF8String@@W4BorderType@GMapArea@@@@IAE@XZ   @218
   ??0?$GMapImpl@VGUTF8String@@W4BorderType@GMapArea@@@@QAE@ABV0@@Z   @219
   ??0?$GMapTemplate@VGUTF8String@@V1@V1@@@QAE@ABV0@@Z   @220
   ??0?$GMapTemplate@VGUTF8String@@V?$GP@VDjVuDocument@@@@V2@@@QAE@XZ   @221
   ??0?$GMapTemplate@VGUTF8String@@V?$GP@VDjVuFile@@@@V2@@@QAE@XZ   @222
   ??0?$GMapTemplate@VGUTF8String@@V?$GP@Vlt_XMLTags@@@@V2@@@QAE@XZ   @223
   ??0?$GMapTemplate@VGUTF8String@@W4BorderType@GMapArea@@W423@@@QAE@ABV0@@Z   @224
   ??0?$GMapTemplate@VGUTF8String@@W4BorderType@GMapArea@@W423@@@QAE@XZ   @225
   ??0?$GP@VByteStream@@@@QAE@XZ   @226
   ??0?$GP@VDjVuANT@@@@QAE@PAVDjVuANT@@@Z   @227
   ??0?$GP@VDjVuANT@@@@QAE@XZ   @228
   ??0?$GP@VDjVuAnno@@@@QAE@PAVDjVuAnno@@@Z   @229
   ??0?$GP@VDjVuDocument@@@@QAE@ABV0@@Z   @230
   ??0?$GP@VDjVuDocument@@@@QAE@XZ   @231
   ??0?$GP@VDjVuFile@@@@QAE@ABV0@@Z   @232
   ??0?$GP@VDjVuFile@@@@QAE@XZ   @233
   ??0?$GP@VDjVuImage@@@@QAE@ABV0@@Z   @234
   ??0?$GP@VDjVuImage@@@@QAE@PAVDjVuImage@@@Z   @235
   ??0?$GP@VDjVuInfo@@@@QAE@ABV0@@Z   @236
   ??0?$GP@VDjVuInfo@@@@QAE@XZ   @237
   ??0?$GP@VDjVuPort@@@@QAE@PAVDjVuPort@@@Z   @238
   ??0?$GP@VDjVuTXT@@@@QAE@ABV0@@Z   @239
   ??0?$GP@VDjVuTXT@@@@QAE@PAVDjVuTXT@@@Z   @240
   ??0?$GP@VDjVuTXT@@@@QAE@XZ   @241
   ??0?$GP@VDjVuText@@@@QAE@PAVDjVuText@@@Z   @242
   ??0?$GP@VGMapArea@@@@QAE@XZ   @243
   ??0?$GP@VGMapOval@@@@QAE@PAVGMapOval@@@Z   @244
   ??0?$GP@VGMapPoly@@@@QAE@PAVGMapPoly@@@Z   @245
   ??0?$GP@VGMapRect@@@@QAE@PAVGMapRect@@@Z   @246
   ??0?$GP@Vlt_XMLParser@@@@QAE@PAVlt_XMLParser@@@Z   @247
   ??0?$GP@Vlt_XMLTags@@@@QAE@PAVlt_XMLTags@@@Z   @248
   ??0?$GSetImpl@VGUTF8String@@@@QAE@ABV0@@Z   @249
   ??0?$MapNode@VGUTF8String@@V?$GP@VDjVuDocument@@@@@@QAE@ABU0@@Z   @250
   ??0?$MapNode@VGUTF8String@@V?$GP@VDjVuDocument@@@@@@QAE@XZ   @251
   ??0?$MapNode@VGUTF8String@@V?$GP@VDjVuFile@@@@@@QAE@ABU0@@Z   @252
   ??0?$MapNode@VGUTF8String@@V?$GP@VDjVuFile@@@@@@QAE@XZ   @253
   ??0?$MapNode@VGUTF8String@@V?$GP@Vlt_XMLTags@@@@@@QAE@ABU0@@Z   @254
   ??0?$MapNode@VGUTF8String@@V?$GP@Vlt_XMLTags@@@@@@QAE@XZ   @255
   ??0?$MapNode@VGUTF8String@@W4BorderType@GMapArea@@@@QAE@ABU0@@Z   @256
   ??0?$MapNode@VGUTF8String@@W4BorderType@GMapArea@@@@QAE@XZ   @257
   ??0DjVuAnno@@IAE@XZ   @258
   ??0DjVuInfo@@QAE@ABV0@@Z   @259
   ??0DjVuTXT@@IAE@XZ   @260
   ??0DjVuText@@IAE@XZ   @261
   ??0GCriticalSection@@QAE@XZ   @262
   ??0GCriticalSectionLock@@QAE@PAVGCriticalSection@@@Z   @263
   ??0GPBase@@QAE@PAVGPEnabled@@@Z   @264
   ??0GPEnabled@@QAE@ABV0@@Z   @265
   ??0GRect@@QAE@HHII@Z   @266
   ??0GRect@@QAE@XZ   @267
   ??0Impl@lt_XMLParser@@QAE@XZ   @268
   ??0lt_XMLParser@@IAE@XZ   @269
   ??1?$ArrayBaseT@VGUTF8String@@@@UAE@XZ   @270
   ??1?$DArray@VGUTF8String@@@@UAE@XZ   @271
   ??1?$GList@H@@QAE@XZ   @272
   ??1?$GList@VGUTF8String@@@@QAE@XZ   @273
   ??1?$GList@VZone@DjVuTXT@@@@QAE@XZ   @274
   ??1?$GListImpl@H@@QAE@XZ   @275
   ??1?$GListImpl@VGUTF8String@@@@QAE@XZ   @276
   ??1?$GListImpl@VZone@DjVuTXT@@@@QAE@XZ   @277
   ??1?$GListTemplate@HH@@QAE@XZ   @278
   ??1?$GListTemplate@VGUTF8String@@V1@@@QAE@XZ   @279
   ??1?$GListTemplate@VZone@DjVuTXT@@V12@@@QAE@XZ   @280
   ??1?$GMap@VGUTF8String@@V?$GP@VDjVuDocument@@@@@@QAE@XZ   @281
   ??1?$GMap@VGUTF8String@@V?$GP@VDjVuFile@@@@@@QAE@XZ   @282
   ??1?$GMap@VGUTF8String@@V?$GP@Vlt_XMLTags@@@@@@QAE@XZ   @283
   ??1?$GMap@VGUTF8String@@W4BorderType@GMapArea@@@@QAE@XZ   @284
   ??1?$GMapImpl@VGUTF8String@@V?$GP@VDjVuDocument@@@@@@QAE@XZ   @285
   ??1?$GMapImpl@VGUTF8String@@V?$GP@VDjVuFile@@@@@@QAE@XZ   @286
   ??1?$GMapImpl@VGUTF8String@@V?$GP@Vlt_XMLTags@@@@@@QAE@XZ   @287
   ??1?$GMapImpl@VGUTF8String@@W4BorderType@GMapArea@@@@QAE@XZ   @288
   ??1?$GMapTemplate@VGUTF8String@@V?$GP@VDjVuDocument@@@@V2@@@QAE@XZ   @289
   ??1?$GMapTemplate@VGUTF8String@@V?$GP@VDjVuFile@@@@V2@@@QAE@XZ   @290
   ??1?$GMapTemplate@VGUTF8String@@V?$GP@Vlt_XMLTags@@@@V2@@@QAE@XZ   @291
   ??1?$GMapTemplate@VGUTF8String@@W4BorderType@GMapArea@@W423@@@QAE@XZ   @292
   ??1?$GP@VDjVuANT@@@@QAE@XZ   @293
   ??1?$GP@VDjVuAnno@@@@QAE@XZ   @294
   ??1?$GP@VDjVuDocument@@@@QAE@XZ   @295
   ??1?$GP@VDjVuFile@@@@QAE@XZ   @296
   ??1?$GP@VDjVuImage@@@@QAE@XZ   @297
   ??1?$GP@VDjVuInfo@@@@QAE@XZ   @298
   ??1?$GP@VDjVuTXT@@@@QAE@XZ   @299
   ??1?$GP@VDjVuText@@@@QAE@XZ   @300
   ??1?$GP@VGMapArea@@@@QAE@XZ   @301
   ??1?$GP@VGMapOval@@@@QAE@XZ   @302
   ??1?$GP@VGMapPoly@@@@QAE@XZ   @303
   ??1?$GP@VGMapRect@@@@QAE@XZ   @304
   ??1?$MapNode@VGUTF8String@@V?$GP@VDjVuDocument@@@@@@QAE@XZ   @305
   ??1?$MapNode@VGUTF8String@@V?$GP@VDjVuFile@@@@@@QAE@XZ   @306
   ??1?$MapNode@VGUTF8String@@V?$GP@Vlt_XMLTags@@@@@@QAE@XZ   @307
   ??1?$MapNode@VGUTF8String@@W4BorderType@GMapArea@@@@QAE@XZ   @308
   ??1ArrayBase@@UAE@XZ   @309
   ??1DjVuAnno@@UAE@XZ   @310
   ??1DjVuInfo@@UAE@XZ   @311
   ??1DjVuTXT@@UAE@XZ   @312
   ??1DjVuText@@UAE@XZ   @313
   ??1Filename@GURL@@UAE@XZ   @314
   ??1GCriticalSection@@QAE@XZ   @315
   ??1GCriticalSectionLock@@QAE@XZ   @316
   ??1GURL@@UAE@XZ   @317
   ??1Impl@lt_XMLParser@@UAE@XZ   @318
   ??1UTF8@Filename@GURL@@UAE@XZ   @319
   ??1UTF8@GURL@@UAE@XZ   @320
   ??1Zone@DjVuTXT@@QAE@XZ   @321
   ??1_ArrayBase@@UAE@XZ   @322
   ??1lt_XMLParser@@MAE@XZ   @323
   ??4?$GP@VByteStream@@@@QAEAAV0@ABV0@@Z   @324
   ??4?$GP@VDjVuANT@@@@QAEAAV0@ABV0@@Z   @325
   ??4?$GP@VDjVuDocument@@@@QAEAAV0@ABV0@@Z   @326
   ??4?$GP@VDjVuFile@@@@QAEAAV0@ABV0@@Z   @327
   ??4?$GP@VDjVuInfo@@@@QAEAAV0@PAVDjVuInfo@@@Z   @328
   ??4?$GP@VDjVuTXT@@@@QAEAAV0@ABV0@@Z   @329
   ??4?$GP@VGMapArea@@@@QAEAAV0@PAVGMapArea@@@Z   @330
   ??7?$GP@VDjVuANT@@@@QBEHXZ   @331
   ??7?$GP@VDjVuFile@@@@QBEHXZ   @332
   ??7?$GP@VDjVuInfo@@@@QBEHXZ   @333
   ??7?$GP@Vlt_XMLTags@@@@QBEHXZ   @334
   ??7GPosition@@QBEHXZ   @335
   ??A?$GListTemplate@HH@@QAEAAHVGPosition@@@Z   @336
   ??A?$GListTemplate@V?$GP@Vlt_XMLTags@@@@VGPBase@@@@QBEABV?$GP@Vlt_XMLTags@@@@VGPosition@@@Z   @337
   ??A?$GMapTemplate@VGUTF8String@@V?$GP@VDjVuDocument@@@@V2@@@QAEAAV?$GP@VDjVuDocument@@@@ABVGPosition@@@Z   @338
   ??A?$GMapTemplate@VGUTF8String@@V?$GP@VDjVuDocument@@@@V2@@@QAEAAV?$GP@VDjVuDocument@@@@ABVGUTF8String@@@Z   @339
   ??A?$GMapTemplate@VGUTF8String@@V?$GP@VDjVuFile@@@@V2@@@QAEAAV?$GP@VDjVuFile@@@@ABVGPosition@@@Z   @340
   ??A?$GMapTemplate@VGUTF8String@@V?$GP@VDjVuFile@@@@V2@@@QAEAAV?$GP@VDjVuFile@@@@ABVGUTF8String@@@Z   @341
   ??A?$GMapTemplate@VGUTF8String@@V?$GP@Vlt_XMLTags@@@@V2@@@QAEAAV?$GP@Vlt_XMLTags@@@@ABVGPosition@@@Z   @342
   ??A?$GMapTemplate@VGUTF8String@@W4BorderType@GMapArea@@W423@@@QAEAAW4BorderType@GMapArea@@ABVGUTF8String@@@Z   @343
   ??A?$GMapTemplate@VGUTF8String@@W4BorderType@GMapArea@@W423@@@QBEABW4BorderType@GMapArea@@ABVGPosition@@@Z   @344
   ??B?$GListTemplate@HH@@QBE?AVGPosition@@XZ   @345
   ??B?$GMapTemplate@VGUTF8String@@V?$GP@VDjVuDocument@@@@V2@@@QBE?AVGPosition@@XZ   @346
   ??B?$GP@VDjVuANT@@@@QBEPAVDjVuANT@@XZ   @347
   ??B?$GP@VDjVuImage@@@@QBEPAVDjVuImage@@XZ   @348
   ??B?$GP@VDjVuInfo@@@@QBEPAVDjVuInfo@@XZ   @349
   ??B?$GP@VGMapArea@@@@QBEPAVGMapArea@@XZ   @350
   ??B?$GP@VGMapOval@@@@QBEPAVGMapOval@@XZ   @351
   ??B?$GP@VGMapPoly@@@@QBEPAVGMapPoly@@XZ   @352
   ??B?$GP@VGMapRect@@@@QBEPAVGMapRect@@XZ   @353
   ??C?$GP@VByteStream@@@@QBEPAVByteStream@@XZ   @354
   ??C?$GP@VDjVuANT@@@@QBEPAVDjVuANT@@XZ   @355
   ??C?$GP@VDjVuDocument@@@@QBEPAVDjVuDocument@@XZ   @356
   ??C?$GP@VDjVuImage@@@@QBEPAVDjVuImage@@XZ   @357
   ??C?$GP@VDjVuInfo@@@@QBEPAVDjVuInfo@@XZ   @358
   ??C?$GP@VDjVuTXT@@@@QBEPAVDjVuTXT@@XZ   @359
   ??C?$GP@VDjVuText@@@@QBEPAVDjVuText@@XZ   @360
   ??C?$GP@VGMapArea@@@@QBEPAVGMapArea@@XZ   @361
   ??C?$GP@VGMapPoly@@@@QBEPAVGMapPoly@@XZ   @362
   ??D?$GP@VByteStream@@@@QBEAAVByteStream@@XZ   @363
   ??D?$GP@VDjVuAnno@@@@QBEAAVDjVuAnno@@XZ   @364
   ??D?$GP@VDjVuFile@@@@QBEAAVDjVuFile@@XZ   @365
   ??D?$GP@VDjVuInfo@@@@QBEAAVDjVuInfo@@XZ   @366
   ?ChangeAnno@Impl@lt_XMLParser@@IAEXHHAAVDjVuFile@@ABVlt_XMLTags@@@Z   @367
   ?ChangeInfo@Impl@lt_XMLParser@@IAEXAAVDjVuFile@@HN@Z   @368
   ?ChangeMeta@Impl@lt_XMLParser@@IAEXAAVDjVuFile@@ABVlt_XMLTags@@@Z   @369
   ?ChangeText@Impl@lt_XMLParser@@IAEXHHAAVDjVuFile@@ABVlt_XMLTags@@@Z   @370
   ?ChangeTextOCR@Impl@lt_XMLParser@@IAEXABVGUTF8String@@HHABV?$GP@VDjVuFile@@@@@Z   @371
   ?append@?$GListTemplate@HH@@QAEXABH@Z   @372
   ?append@?$GListTemplate@V?$GP@VGMapArea@@@@VGPBase@@@@QAEXABV?$GP@VGMapArea@@@@@Z   @373
   ?contains@?$GListTemplate@VGUTF8String@@V1@@@QBE?AVGPosition@@ABVGUTF8String@@@Z   @374
   ?contains@?$GMapTemplate@VGUTF8String@@V?$GP@VDjVuDocument@@@@V2@@@QBE?AVGPosition@@ABVGUTF8String@@@Z   @375
   ?contains@?$GMapTemplate@VGUTF8String@@V?$GP@VDjVuFile@@@@V2@@@QBE?AVGPosition@@ABVGUTF8String@@@Z   @376
   ?contains@?$GMapTemplate@VGUTF8String@@V?$GP@Vlt_XMLTags@@@@V2@@@QBE?AVGPosition@@ABVGUTF8String@@@Z   @377
   ?contains@?$GMapTemplate@VGUTF8String@@W4BorderType@GMapArea@@W423@@@QBE?AVGPosition@@ABVGUTF8String@@@Z   @378
   ?copy@?$NormTraits@U?$ListNode@H@@@@SAXPAXPBXHH@Z   @379
   ?copy@?$NormTraits@U?$MapNode@VGUTF8String@@V?$GP@VDjVuDocument@@@@@@@@SAXPAXPBXHH@Z   @380
   ?copy@?$NormTraits@U?$MapNode@VGUTF8String@@V?$GP@VDjVuFile@@@@@@@@SAXPAXPBXHH@Z   @381
   ?copy@?$NormTraits@U?$MapNode@VGUTF8String@@V?$GP@Vlt_XMLTags@@@@@@@@SAXPAXPBXHH@Z   @382
   ?copy@?$NormTraits@U?$MapNode@VGUTF8String@@W4BorderType@GMapArea@@@@@@SAXPAXPBXHH@Z   @383
   ?create@DjVuANT@@SA?AV?$GP@VDjVuANT@@@@XZ   @384
   ?create@DjVuAnno@@SA?AV?$GP@VDjVuAnno@@@@XZ   @385
   ?create@DjVuImage@@SA?AV?$GP@VDjVuImage@@@@ABV?$GP@VDjVuFile@@@@@Z   @386
   ?create@DjVuImage@@SA?AV?$GP@VDjVuImage@@@@XZ   @387
   ?create@DjVuTXT@@SA?AV?$GP@VDjVuTXT@@@@XZ   @388
   ?create@DjVuText@@SA?AV?$GP@VDjVuText@@@@XZ   @389
   ?create@GMapOval@@SA?AV?$GP@VGMapOval@@@@ABVGRect@@@Z   @390
   ?create@GMapPoly@@SA?AV?$GP@VGMapPoly@@@@XZ   @391
   ?create@GMapRect@@SA?AV?$GP@VGMapRect@@@@ABVGRect@@@Z   @392
   ?create@lt_XMLParser@@SA?AV?$GP@Vlt_XMLParser@@@@XZ   @393
   ?create@lt_XMLTags@@SA?AV?$GP@Vlt_XMLTags@@@@ABV?$GP@VByteStream@@@@@Z   @394
   ?empty@?$GListTemplate@V?$GP@VGMapArea@@@@VGPBase@@@@QAEXXZ   @395
   ?empty@?$GMapTemplate@VGUTF8String@@V?$GP@VDjVuDocument@@@@V2@@@QAEXXZ   @396
   ?empty@?$GMapTemplate@VGUTF8String@@V?$GP@VDjVuFile@@@@V2@@@QAEXXZ   @397
   ?empty@Impl@lt_XMLParser@@UAEXXZ   @398
   ?fini@?$NormTraits@U?$ListNode@H@@@@SAXPAXH@Z   @399
   ?fini@?$NormTraits@U?$MapNode@VGUTF8String@@V?$GP@VDjVuDocument@@@@@@@@SAXPAXH@Z   @400
   ?fini@?$NormTraits@U?$MapNode@VGUTF8String@@V?$GP@VDjVuFile@@@@@@@@SAXPAXH@Z   @401
   ?fini@?$NormTraits@U?$MapNode@VGUTF8String@@V?$GP@Vlt_XMLTags@@@@@@@@SAXPAXH@Z   @402
   ?fini@?$NormTraits@U?$MapNode@VGUTF8String@@W4BorderType@GMapArea@@@@@@SAXPAXH@Z   @403
   ?firstEndSpace@GBaseString@@QBEHHH@Z   @404
   ?firstpos@?$GListTemplate@HH@@QBE?AVGPosition@@XZ   @405
   ?firstpos@?$GMapTemplate@VGUTF8String@@V?$GP@VDjVuDocument@@@@V2@@@QBE?AVGPosition@@XZ   @406
   ?get_args@lt_XMLTags@@QBEABV?$GMap@VGUTF8String@@V1@@@XZ   @407
   ?get_content@lt_XMLTags@@QBEABV?$GList@Vlt_XMLContents@@@@XZ   @408
   ?get_doc_type@DjVuDocument@@QBEHXZ   @409
   ?get_file@Impl@lt_XMLParser@@IAE?AV?$GP@VDjVuFile@@@@ABVGURL@@VGUTF8String@@@Z   @410
   ?get_init_url@DjVuDocument@@QBE?AVGURL@@XZ   @411
   ?get_name@lt_XMLTags@@QBEABVGUTF8String@@XZ   @412
   ?get_or_create@?$GMapImpl@VGUTF8String@@V?$GP@VDjVuDocument@@@@@@IAEPAUHNode@@ABVGUTF8String@@@Z   @413
   ?get_or_create@?$GMapImpl@VGUTF8String@@V?$GP@VDjVuFile@@@@@@IAEPAUHNode@@ABVGUTF8String@@@Z   @414
   ?get_or_create@?$GMapImpl@VGUTF8String@@W4BorderType@GMapArea@@@@IAEPAUHNode@@ABVGUTF8String@@@Z   @415
   ?get_raw@lt_XMLTags@@QBEABVGUTF8String@@XZ   @416
   ?init@?$NormTraits@U?$ListNode@H@@@@SAXPAXH@Z   @417
   ?init@?$NormTraits@U?$MapNode@VGUTF8String@@V?$GP@VDjVuDocument@@@@@@@@SAXPAXH@Z   @418
   ?init@?$NormTraits@U?$MapNode@VGUTF8String@@V?$GP@VDjVuFile@@@@@@@@SAXPAXH@Z   @419
   ?init@?$NormTraits@U?$MapNode@VGUTF8String@@V?$GP@Vlt_XMLTags@@@@@@@@SAXPAXH@Z   @420
   ?init@?$NormTraits@U?$MapNode@VGUTF8String@@W4BorderType@GMapArea@@@@@@SAXPAXH@Z   @421
   ?is_bundled@DjVuDocument@@QBE_NXZ   @422
   ?lastpos@?$GListTemplate@HH@@QBE?AVGPosition@@XZ   @423
   ?lea@?$NormTraits@U?$ListNode@H@@@@SAPAXPAXH@Z   @424
   ?lea@?$NormTraits@U?$MapNode@VGUTF8String@@V?$GP@VDjVuDocument@@@@@@@@SAPAXPAXH@Z   @425
   ?lea@?$NormTraits@U?$MapNode@VGUTF8String@@V?$GP@VDjVuFile@@@@@@@@SAPAXPAXH@Z   @426
   ?lea@?$NormTraits@U?$MapNode@VGUTF8String@@V?$GP@Vlt_XMLTags@@@@@@@@SAPAXPAXH@Z   @427
   ?lea@?$NormTraits@U?$MapNode@VGUTF8String@@W4BorderType@GMapArea@@@@@@SAPAXPAXH@Z   @428
   ?lock@GCriticalSection@@QAEXXZ   @429
   ?max@@YAHHH@Z   @430
   ?min@@YAHHH@Z   @431
   ?newnode@?$GListImpl@H@@KAPAUNode@@ABH@Z   @432
   ?page_to_id@DjVuDocument@@QBE?AVGUTF8String@@H@Z   @433
   ?parse@Impl@lt_XMLParser@@UAEXABV?$GP@VByteStream@@@@@Z   @434
   ?parse@Impl@lt_XMLParser@@UAEXABVlt_XMLTags@@@Z   @435
   ?parse_anno@Impl@lt_XMLParser@@IAEXHHABVlt_XMLTags@@AAV?$GMap@VGUTF8String@@V?$GP@Vlt_XMLTags@@@@@@AAVDjVuFile@@@Z   @436
   ?parse_meta@Impl@lt_XMLParser@@IAEXABVlt_XMLTags@@AAVDjVuFile@@@Z   @437
   ?parse_text@Impl@lt_XMLParser@@IAEXHHABVlt_XMLTags@@AAVDjVuFile@@@Z   @438
   ?save@Impl@lt_XMLParser@@UAEXXZ   @439
   ?search@?$GListImpl@VGUTF8String@@@@IBEHABVGUTF8String@@AAVGPosition@@@Z   @440
   ?setOCRcallback@lt_XMLParser@@SAXQAXQ6A?AV?$GP@VByteStream@@@@PAXABVGUTF8String@@ABV?$GP@VDjVuImage@@@@@Z@Z   @441
   ?set_modified@DjVuFile@@QAEX_N@Z   @442
   ?size@?$GMapTemplate@VGUTF8String@@W4BorderType@GMapArea@@W423@@@QBEHXZ   @443
   ?theTraits@?1??traits@?$NormTraits@U?$ListNode@H@@@@SAABUTraits@@XZ@4U3@B   @444
   ?theTraits@?1??traits@?$NormTraits@U?$MapNode@VGUTF8String@@V?$GP@VDjVuDocument@@@@@@@@SAABUTraits@@XZ@4U3@B   @445
   ?theTraits@?1??traits@?$NormTraits@U?$MapNode@VGUTF8String@@V?$GP@VDjVuFile@@@@@@@@SAABUTraits@@XZ@4U3@B   @446
   ?theTraits@?1??traits@?$NormTraits@U?$MapNode@VGUTF8String@@V?$GP@Vlt_XMLTags@@@@@@@@SAABUTraits@@XZ@4U3@B   @447
   ?theTraits@?1??traits@?$NormTraits@U?$MapNode@VGUTF8String@@W4BorderType@GMapArea@@@@@@SAABUTraits@@XZ@4U3@B   @448
   ?toDouble@GBaseString@@QBENHAAH@Z   @449
   ?toInt@GBaseString@@QBEHXZ   @450
   ?toLong@GBaseString@@QBEJHAAHH@Z   @451
   ?toULong@GBaseString@@QBEKHAAHH@Z   @452
   ?traits@?$NormTraits@U?$ListNode@H@@@@SAABUTraits@@XZ   @453
   ?traits@?$NormTraits@U?$MapNode@VGUTF8String@@V?$GP@VDjVuDocument@@@@@@@@SAABUTraits@@XZ   @454
   ?traits@?$NormTraits@U?$MapNode@VGUTF8String@@V?$GP@VDjVuFile@@@@@@@@SAABUTraits@@XZ   @455
   ?traits@?$NormTraits@U?$MapNode@VGUTF8String@@V?$GP@Vlt_XMLTags@@@@@@@@SAABUTraits@@XZ   @456
   ?traits@?$NormTraits@U?$MapNode@VGUTF8String@@W4BorderType@GMapArea@@@@@@SAABUTraits@@XZ   @457
   ?unlock@GCriticalSection@@QAEXXZ   @458
   ?unref@_ArrayRep@@AAEXXZ   @459
   ?url_to_id@DjVuDocument@@QBE?AVGUTF8String@@ABVGURL@@@Z   @460
   ??0?$GP@VUnicode@GStringRep@@@@QAE@ABV0@@Z   @461
   ??0?$GP@VUnicode@GStringRep@@@@QAE@XZ   @462
   ??0?$GP@VXMLByteStream@@@@QAE@ABV0@@Z   @463
   ??0?$GP@VXMLByteStream@@@@QAE@PAVXMLByteStream@@@Z   @464
   ??0?$GPBuffer@D@@QAE@AAPADI@Z   @465
   ??0ByteStream@@IAE@XZ   @466
   ??0UnicodeByteStream@@IAE@ABV0@@Z   @467
   ??0UnicodeByteStream@@IAE@V?$GP@VByteStream@@@@W4EncodeType@GStringRep@@@Z   @468
   ??0XMLByteStream@@IAE@AAV?$GP@VByteStream@@@@@Z   @469
   ??0XMLByteStream@@IAE@AAVUnicodeByteStream@@@Z   @470
   ??1?$GP@VUnicode@GStringRep@@@@QAE@XZ   @471
   ??1?$GPBuffer@D@@QAE@XZ   @472
   ??1UnicodeByteStream@@UAE@XZ   @473
   ??1XMLByteStream@@UAE@XZ   @474
   ??4?$GP@VUnicode@GStringRep@@@@QAEAAV0@ABV0@@Z   @475
   ??4UnicodeByteStream@@AAEAAV0@AAV0@@Z   @476
   ?create@XMLByteStream@@SA?AV?$GP@VXMLByteStream@@@@V?$GP@VByteStream@@@@@Z   @477
   ?flush@UnicodeByteStream@@UAEXXZ   @478
   ?get_remainder@GUTF8String@@QBE?AV?$GP@VUnicode@GStringRep@@@@XZ   @479
   ?gets@UnicodeByteStream@@UAE?AVGUTF8String@@IK_N@Z   @480
   ?init@XMLByteStream@@IAEXXZ   @481
   ?read@UnicodeByteStream@@UAEIPAXI@Z   @482
   ?readat@ByteStream@@UAEIPAXIH@Z   @483
   ?search@GBaseString@@QBEHDH@Z   @484
   ?seek@UnicodeByteStream@@UAEHJH_N@Z   @485
   ?set_encodetype@UnicodeByteStream@@QAEXW4EncodeType@GStringRep@@@Z   @486
   ?set_encoding@UnicodeByteStream@@QAEXABVGUTF8String@@@Z   @487
   ?size@ByteStream@@UBEHXZ   @488
   ?tell@UnicodeByteStream@@UBEJXZ   @489
   ?write@UnicodeByteStream@@UAEIPBXI@Z   @490
   ?disable_mmx@MMXControl@@SAHXZ   @491
   ?enable_mmx@MMXControl@@SAHXZ   @492
   ?mmxflag@MMXControl@@2HA   @493
   ??0?$GArrayTemplate@V?$GP@VGBitmap@@@@@@QAE@ABUTraits@@HH@Z   @494
   ??0?$GP@VGBitmap@@@@QAE@PAVGBitmap@@@Z   @495
   ??0?$GP@VGBitmap@@@@QAE@XZ   @496
   ??0?$GP@VJB2Image@@@@QAE@ABV0@@Z   @497
   ??0?$GP@VJB2Image@@@@QAE@PAVJB2Image@@@Z   @498
   ??0?$GP@VMMRDecoder@@@@QAE@ABV0@@Z   @499
   ??0?$GP@VMMRDecoder@@@@QAE@PAVMMRDecoder@@@Z   @500
   ??0?$GP@VVLSource@MMRDecoder@@@@QAE@ABV0@@Z   @501
   ??0?$GP@VVLSource@MMRDecoder@@@@QAE@PAVVLSource@MMRDecoder@@@Z   @502
   ??0?$GP@VVLSource@MMRDecoder@@@@QAE@XZ   @503
   ??0?$GP@VVLTable@MMRDecoder@@@@QAE@ABV0@@Z   @504
   ??0?$GP@VVLTable@MMRDecoder@@@@QAE@PAVVLTable@MMRDecoder@@@Z   @505
   ??0?$GP@VVLTable@MMRDecoder@@@@QAE@XZ   @506
   ??0?$GPArray@VGBitmap@@@@QAE@HH@Z   @507
   ??0?$GPBuffer@E@@QAE@AAPAEI@Z   @508
   ??0?$GPBuffer@G@@QAE@AAPAGI@Z   @509
   ??0JB2Shape@@QAE@XZ   @510
   ??0MMRDecoder@@IAE@HH@Z   @511
   ??0VLSource@MMRDecoder@@IAE@AAV?$GP@VByteStream@@@@@Z   @512
   ??0VLTable@MMRDecoder@@IAE@PBUVLCode@@@Z   @513
   ??1?$GArrayTemplate@V?$GP@VGBitmap@@@@@@QAE@XZ   @514
   ??1?$GP@VGBitmap@@@@QAE@XZ   @515
   ??1?$GP@VJB2Image@@@@QAE@XZ   @516
   ??1?$GP@VMMRDecoder@@@@QAE@XZ   @517
   ??1?$GP@VVLSource@MMRDecoder@@@@QAE@XZ   @518
   ??1?$GP@VVLTable@MMRDecoder@@@@QAE@XZ   @519
   ??1?$GPArray@VGBitmap@@@@QAE@XZ   @520
   ??1?$GPBuffer@E@@QAE@XZ   @521
   ??1?$GPBuffer@G@@QAE@XZ   @522
   ??1JB2Shape@@QAE@XZ   @523
   ??1MMRDecoder@@UAE@XZ   @524
   ??1VLSource@MMRDecoder@@UAE@XZ   @525
   ??1VLTable@MMRDecoder@@UAE@XZ   @526
   ??4?$GP@VGBitmap@@@@QAEAAV0@ABV0@@Z   @527
   ??4?$GP@VVLSource@MMRDecoder@@@@QAEAAV0@ABV0@@Z   @528
   ??4?$GP@VVLTable@MMRDecoder@@@@QAEAAV0@ABV0@@Z   @529
   ??7?$GP@VGBitmap@@@@QBEHXZ   @530
   ??A?$GArrayTemplate@V?$GP@VGBitmap@@@@@@QAEAAV?$GP@VGBitmap@@@@H@Z   @531
   ??AGBitmap@@QAEPAEH@Z   @532
   ??B?$GP@VGBitmap@@@@QBEPAVGBitmap@@XZ   @533
   ??B?$GP@VVLSource@MMRDecoder@@@@QBEPAVVLSource@MMRDecoder@@XZ   @534
   ??C?$GP@VGBitmap@@@@QBEPAVGBitmap@@XZ   @535
   ??C?$GP@VJB2Image@@@@QBEPAVJB2Image@@XZ   @536
   ??C?$GP@VVLSource@MMRDecoder@@@@QBEPAVVLSource@MMRDecoder@@XZ   @537
   ??C?$GP@VVLTable@MMRDecoder@@@@QBEPAVVLTable@MMRDecoder@@XZ   @538
   ??D?$GP@VGBitmap@@@@QBEAAVGBitmap@@XZ   @539
   ??D?$GP@VMMRDecoder@@@@QBEAAVMMRDecoder@@XZ   @540
   ??D?$GP@VVLTable@MMRDecoder@@@@QBEAAVVLTable@MMRDecoder@@XZ   @541
   ?append_run@GBitmap@@SAXAAPAEH@Z   @542
   ?clear@?$GPBuffer@E@@QAEXXZ   @543
   ?clear@?$GPBuffer@G@@QAEXXZ   @544
   ?copy@?$NormTraits@VGPBase@@@@SAXPAXPBXHH@Z   @545
   ?create@GBitmap@@SA?AV?$GP@VGBitmap@@@@HHH@Z   @546
   ?create@JB2Image@@SA?AV?$GP@VJB2Image@@@@XZ   @547
   ?create@MMRDecoder@@SA?AV?$GP@VMMRDecoder@@@@V?$GP@VByteStream@@@@HH_N@Z   @548
   ?create@VLSource@MMRDecoder@@SA?AV?$GP@VVLSource@MMRDecoder@@@@AAV?$GP@VByteStream@@@@_N@Z   @549
   ?create@VLTable@MMRDecoder@@SA?AV?$GP@VVLTable@MMRDecoder@@@@QBUVLCode@@H@Z   @550
   ?decode@MMRDecoder@@SA?AV?$GP@VJB2Image@@@@V?$GP@VByteStream@@@@@Z   @551
   ?decode@VLTable@MMRDecoder@@QAEHPAVVLSource@2@@Z   @552
   ?decode_header@MMRDecoder@@SA_NAAVByteStream@@AAH11@Z   @553
   ?fini@?$NormTraits@VGPBase@@@@SAXPAXH@Z   @554
   ?init@?$NormTraits@VGPBase@@@@SAXPAXH@Z   @555
   ?init@MMRDecoder@@IAEXV?$GP@VByteStream@@@@_N@Z   @556
   ?init@VLSource@MMRDecoder@@IAEX_N@Z   @557
   ?init@VLTable@MMRDecoder@@IAEXH@Z   @558
   ?lea@?$NormTraits@VGPBase@@@@SAPAXPAXH@Z   @559
   ?nextstripe@VLSource@MMRDecoder@@QAEXXZ   @560
   ?peek@VLSource@MMRDecoder@@QAEIXZ   @561
   ?preload@VLSource@MMRDecoder@@QAEXXZ   @562
   ?resize@?$GPBuffer@E@@QAEXI@Z   @563
   ?scanrle@MMRDecoder@@QAEPBE_NPAPBE@Z   @564
   ?scanruns@MMRDecoder@@QAEPBGPAPBG@Z   @565
   ?set@?$GPBuffer@E@@QAEXD@Z   @566
   ?shift@VLSource@MMRDecoder@@QAEXH@Z   @567
   ?theTraits@?1??traits@?$NormTraits@VGPBase@@@@SAABUTraits@@XZ@4U3@B   @568
   ?traits@?$NormTraits@VGPBase@@@@SAABUTraits@@XZ   @569
   ??0?$GP@VGPixmap@@@@QAE@ABV0@@Z   @570
   ??0?$GP@VGPixmap@@@@QAE@PAVGPixmap@@@Z   @571
   ??0?$GP@VJPEGImage@@@@QAE@PAVJPEGImage@@@Z   @572
   ??0?$vector@DV?$allocator@D@std@@@std@@QAE@ABV?$allocator@D@1@@Z   @573
   ??0JPEGImage@@IAE@XZ   @574
   ??1?$GP@VGPixmap@@@@QAE@XZ   @575
   ??1?$GP@VJPEGImage@@@@QAE@XZ   @576
   ??1?$vector@DV?$allocator@D@std@@@std@@QAE@XZ   @577
   ??1JPEGImage@@UAE@XZ   @578
   ??A?$vector@DV?$allocator@D@std@@@std@@QAEAADI@Z   @579
   ??AGPixmap@@QAEPAUGPixel@@H@Z   @580
   ??D?$GP@VGPixmap@@@@QBEAAVGPixmap@@XZ   @581
   ?_Allocate@std@@YAPADHPAD@Z   @582
   ?_Construct@std@@YAXPADABD@Z   @583
   ?_Destroy@?$vector@DV?$allocator@D@std@@@std@@IAEXPAD0@Z   @584
   ?_Destroy@std@@YAXPAD@Z   @585
   ?_Ucopy@?$vector@DV?$allocator@D@std@@@std@@IAEPADPBD0PAD@Z   @586
   ?_Ufill@?$vector@DV?$allocator@D@std@@@std@@IAEXPADIABD@Z   @587
   ?allocate@?$allocator@D@std@@QAEPADIPBX@Z   @588
   ?begin@?$vector@DV?$allocator@D@std@@@std@@QAEPADXZ   @589
   ?construct@?$allocator@D@std@@QAEXPADABD@Z   @590
   ?copy@std@@YAPADPAD00@Z   @591
   ?copy_backward@std@@YAPADPAD00@Z   @592
   ?create@GPixmap@@SA?AV?$GP@VGPixmap@@@@HHPBUGPixel@@@Z   @593
   ?create@JPEGImage@@SA?AV?$GP@VJPEGImage@@@@AAVByteStream@@@Z   @594
   ?deallocate@?$allocator@D@std@@QAEXPAXI@Z   @595
   ?destroy@?$allocator@D@std@@QAEXPAD@Z   @596
   ?end@?$vector@DV?$allocator@D@std@@@std@@QAEPADXZ   @597
   ?erase@?$vector@DV?$allocator@D@std@@@std@@QAEPADPAD0@Z   @598
   ?fill@std@@YAXPAD0ABD@Z   @599
   ?get_pixmap@JPEGImage@@QAE?AV?$GP@VGPixmap@@@@XZ   @600
   ?insert@?$vector@DV?$allocator@D@std@@@std@@QAEXPADIABD@Z   @601
   ?resize@?$vector@DV?$allocator@D@std@@@std@@QAEXIABD@Z   @602
   ?size@?$vector@DV?$allocator@D@std@@@std@@QBEIXZ   @603
   ??0?$GArray@VJB2Shape@@@@QAE@XZ   @604
   ??0?$GArrayTemplate@H@@QAE@ABUTraits@@@Z   @605
   ??0?$GArrayTemplate@ULibRect@JB2Dict@@@@QAE@ABUTraits@@@Z   @606
   ??0?$GArrayTemplate@VJB2Blit@@@@QAE@ABUTraits@@@Z   @607
   ??0?$GArrayTemplate@VJB2Shape@@@@QAE@ABUTraits@@@Z   @608
   ??0?$GP@VGBitmap@@@@QAE@ABV0@@Z   @609
   ??0?$GP@VJB2Dict@@@@QAE@ABV0@@Z   @610
   ??0?$GP@VJB2Dict@@@@QAE@PAVJB2Dict@@@Z   @611
   ??0?$GP@VJB2Dict@@@@QAE@XZ   @612
   ??0?$GPBuffer@I@@QAE@AAPAII@Z   @613
   ??0?$GTArray@H@@QAE@XZ   @614
   ??0?$GTArray@ULibRect@JB2Dict@@@@QAE@XZ   @615
   ??0?$GTArray@VJB2Blit@@@@QAE@XZ   @616
   ??0Decode@JB2Codec@JB2Dict@@QAE@XZ   @617
   ??0GMonitorLock@@QAE@PAVGMonitor@@@Z   @618
   ??0JB2Codec@JB2Dict@@IAE@_N@Z   @619
   ??0JB2Dict@@IAE@XZ   @620
   ??0JB2Image@@IAE@XZ   @621
   ??0JB2Shape@@QAE@ABV0@@Z   @622
   ??1?$GArray@VJB2Shape@@@@QAE@XZ   @623
   ??1?$GArrayTemplate@H@@QAE@XZ   @624
   ??1?$GArrayTemplate@ULibRect@JB2Dict@@@@QAE@XZ   @625
   ??1?$GArrayTemplate@VJB2Blit@@@@QAE@XZ   @626
   ??1?$GArrayTemplate@VJB2Shape@@@@QAE@XZ   @627
   ??1?$GP@VJB2Dict@@@@QAE@XZ   @628
   ??1?$GPBuffer@I@@QAE@XZ   @629
   ??1?$GTArray@H@@QAE@XZ   @630
   ??1?$GTArray@ULibRect@JB2Dict@@@@QAE@XZ   @631
   ??1?$GTArray@VJB2Blit@@@@QAE@XZ   @632
   ??1Decode@JB2Codec@JB2Dict@@UAE@XZ   @633
   ??1GMonitorLock@@QAE@XZ   @634
   ??1JB2Codec@JB2Dict@@UAE@XZ   @635
   ??1JB2Dict@@UAE@XZ   @636
   ??1JB2Image@@UAE@XZ   @637
   ??4?$GP@VJB2Dict@@@@QAEAAV0@ABV0@@Z   @638
   ??4?$GP@VJB2Dict@@@@QAEAAV0@PAVJB2Dict@@@Z   @639
   ??4?$GP@VZPCodec@@@@QAEAAV0@ABV0@@Z   @640
   ??4JB2Shape@@QAEAAV0@ABV0@@Z   @641
   ??7?$GP@VJB2Dict@@@@QBEHXZ   @642
   ??7?$GP@VJB2Image@@@@QBEHXZ   @643
   ??A?$GArrayTemplate@H@@QAEAAHH@Z   @644
   ??A?$GArrayTemplate@ULibRect@JB2Dict@@@@QAEAAULibRect@JB2Dict@@H@Z   @645
   ??A?$GArrayTemplate@VJB2Blit@@@@QAEAAVJB2Blit@@H@Z   @646
   ??A?$GArrayTemplate@VJB2Blit@@@@QBEABVJB2Blit@@H@Z   @647
   ??A?$GArrayTemplate@VJB2Shape@@@@QAEAAVJB2Shape@@H@Z   @648
   ??A?$GArrayTemplate@VJB2Shape@@@@QBEABVJB2Shape@@H@Z   @649
   ??AGBitmap@@QBEPBEH@Z   @650
   ??B?$GP@VJB2Dict@@@@QBEPAVJB2Dict@@XZ   @651
   ??B?$GPBuffer@E@@QBEHXZ   @652
   ??BGPBufferBase@@QBEHXZ   @653
   ??C?$GP@VJB2Dict@@@@QBEPAVJB2Dict@@XZ   @654
   ??C?$GP@VZPCodec@@@@QBEPAVZPCodec@@XZ   @655
   ??D?$GP@VJB2Dict@@@@QBEAAVJB2Dict@@XZ   @656
   ??D?$GP@VJB2Image@@@@QBEAAVJB2Image@@XZ   @657
   ??D?$GP@VZPCodec@@@@QBEAAVZPCodec@@XZ   @658
   ?CodeBit@Decode@JB2Codec@JB2Dict@@MAE_N_NAAE@Z   @659
   ?CodeNum@Decode@JB2Codec@JB2Dict@@IAEHHHAAI@Z   @660
   ?CodeNum@JB2Codec@JB2Dict@@IAEHHHPAIH@Z   @661
   ?add_blit@JB2Image@@QAEHABVJB2Blit@@@Z   @662
   ?add_library@JB2Codec@JB2Dict@@IAEHHAAVJB2Shape@@@Z   @663
   ?add_shape@JB2Dict@@QAEHABVJB2Shape@@@Z   @664
   ?clear@?$GPBuffer@I@@QAEXXZ   @665
   ?code@Decode@JB2Codec@JB2Dict@@QAEXABV?$GP@VJB2Dict@@@@@Z   @666
   ?code@Decode@JB2Codec@JB2Dict@@QAEXABV?$GP@VJB2Image@@@@@Z   @667
   ?code@Decode@JB2Codec@JB2Dict@@QAEXPAV3@@Z   @668
   ?code@Decode@JB2Codec@JB2Dict@@QAEXPAVJB2Image@@@Z   @669
   ?code_absolute_location@Decode@JB2Codec@JB2Dict@@MAEXPAVJB2Blit@@HH@Z   @670
   ?code_absolute_mark_size@Decode@JB2Codec@JB2Dict@@MAEXAAVGBitmap@@H@Z   @671
   ?code_bitmap_by_cross_coding@Decode@JB2Codec@JB2Dict@@MAEXAAVGBitmap@@0HHHHPAE1111@Z   @672
   ?code_bitmap_by_cross_coding@JB2Codec@JB2Dict@@IAEXAAVGBitmap@@AAV?$GP@VGBitmap@@@@H@Z   @673
   ?code_bitmap_directly@Decode@JB2Codec@JB2Dict@@MAEXAAVGBitmap@@HHPAE11@Z   @674
   ?code_bitmap_directly@JB2Codec@JB2Dict@@IAEXAAVGBitmap@@@Z   @675
   ?code_comment@Decode@JB2Codec@JB2Dict@@MAEXAAVGUTF8String@@@Z   @676
   ?code_eventual_lossless_refinement@JB2Codec@JB2Dict@@IAEXXZ   @677
   ?code_image_size@Decode@JB2Codec@JB2Dict@@MAEXAAV3@@Z   @678
   ?code_image_size@Decode@JB2Codec@JB2Dict@@MAEXAAVJB2Image@@@Z   @679
   ?code_image_size@JB2Codec@JB2Dict@@MAEXAAV2@@Z   @680
   ?code_image_size@JB2Codec@JB2Dict@@MAEXAAVJB2Image@@@Z   @681
   ?code_inherited_shape_count@Decode@JB2Codec@JB2Dict@@MAEXAAV3@@Z   @682
   ?code_match_index@Decode@JB2Codec@JB2Dict@@MAEHAAHAAV3@@Z   @683
   ?code_record@JB2Codec@JB2Dict@@IAEXAAHABV?$GP@VJB2Dict@@@@PAVJB2Shape@@@Z   @684
   ?code_record@JB2Codec@JB2Dict@@IAEXAAHABV?$GP@VJB2Image@@@@PAVJB2Shape@@PAVJB2Blit@@@Z   @685
   ?code_record_type@Decode@JB2Codec@JB2Dict@@MAEXAAH@Z   @686
   ?code_relative_location@JB2Codec@JB2Dict@@IAEXPAVJB2Blit@@HH@Z   @687
   ?code_relative_mark_size@Decode@JB2Codec@JB2Dict@@MAEXAAVGBitmap@@HHH@Z   @688
   ?columns@GBitmap@@QBEIXZ   @689
   ?compress@JB2Dict@@QAEXXZ   @690
   ?compute_bounding_box@LibRect@JB2Dict@@QAEXABVGBitmap@@@Z   @691
   ?copy@?$NormTraits@VJB2Shape@@@@SAXPAXPBXHH@Z   @692
   ?copy@?$TrivTraits@$03@@SAXPAXPBXHH@Z   @693
   ?copy@?$TrivTraits@$07@@SAXPAXPBXHH@Z   @694
   ?copy@?$TrivTraits@$0BA@@@SAXPAXPBXHH@Z   @695
   ?create@GBitmap@@SA?AV?$GP@VGBitmap@@@@XZ   @696
   ?create@JB2Dict@@SA?AV?$GP@VJB2Dict@@@@XZ   @697
   ?decode@JB2Dict@@QAEXABV?$GP@VByteStream@@@@P6A?AV?$GP@VJB2Dict@@@@PAX@Z1@Z   @698
   ?decode@JB2Image@@QAEXABV?$GP@VByteStream@@@@P6A?AV?$GP@VJB2Dict@@@@PAX@Z1@Z   @699
   ?decoder@ZPCodec@@QAEHAAE@Z   @700
   ?empty@?$GArrayTemplate@VJB2Blit@@@@QAEXXZ   @701
   ?empty@?$GArrayTemplate@VJB2Shape@@@@QAEXXZ   @702
   ?fill_short_list@JB2Codec@JB2Dict@@IAEXH@Z   @703
   ?fini@?$NormTraits@VJB2Shape@@@@SAXPAXH@Z   @704
   ?fini@?$TrivTraits@$03@@SAXPAXH@Z   @705
   ?fini@?$TrivTraits@$07@@SAXPAXH@Z   @706
   ?fini@?$TrivTraits@$0BA@@@SAXPAXH@Z   @707
   ?get_bitmap@JB2Image@@QBE?AV?$GP@VGBitmap@@@@ABVGRect@@HHH@Z   @708
   ?get_bitmap@JB2Image@@QBE?AV?$GP@VGBitmap@@@@HH@Z   @709
   ?get_blit@JB2Image@@QBEPBVJB2Blit@@H@Z   @710
   ?get_blit_count@JB2Image@@QBEHXZ   @711
   ?get_bounding_box@JB2Dict@@QAEXHAAULibRect@1@@Z   @712
   ?get_cross_context@JB2Codec@JB2Dict@@KAHQBE0000H@Z   @713
   ?get_diff@Decode@JB2Codec@JB2Dict@@MAEHHAAI@Z   @714
   ?get_direct_context@JB2Codec@JB2Dict@@KAHQBE00H@Z   @715
   ?get_inherited_dict@JB2Dict@@QBE?AV?$GP@VJB2Dict@@@@XZ   @716
   ?get_inherited_shape_count@JB2Dict@@QBEHXZ   @717
   ?get_memory_usage@JB2Dict@@QBEIXZ   @718
   ?get_memory_usage@JB2Image@@QBEIXZ   @719
   ?get_shape@JB2Dict@@QAEAAVJB2Shape@@H@Z   @720
   ?get_shape@JB2Dict@@QBEABVJB2Shape@@H@Z   @721
   ?get_shape_count@JB2Dict@@QBEHXZ   @722
   ?hbound@?$GArrayTemplate@H@@QBEHXZ   @723
   ?hbound@?$GArrayTemplate@VJB2Shape@@@@QBEHXZ   @724
   ?height@GRect@@QBEHXZ   @725
   ?init@?$NormTraits@VJB2Shape@@@@SAXPAXH@Z   @726
   ?init@?$TrivTraits@$03@@SAXPAXH@Z   @727
   ?init@?$TrivTraits@$07@@SAXPAXH@Z   @728
   ?init@?$TrivTraits@$0BA@@@SAXPAXH@Z   @729
   ?init@Decode@JB2Codec@JB2Dict@@QAEXABV?$GP@VByteStream@@@@@Z   @730
   ?init@JB2Dict@@QAEXXZ   @731
   ?init@JB2Image@@QAEXXZ   @732
   ?init_library@JB2Codec@JB2Dict@@IAEXAAV2@@Z   @733
   ?lbound@?$GArrayTemplate@VJB2Shape@@@@QBEHXZ   @734
   ?lea@?$NormTraits@VJB2Shape@@@@SAPAXPAXH@Z   @735
   ?lea@?$TrivTraits@$03@@SAPAXPAXH@Z   @736
   ?lea@?$TrivTraits@$07@@SAPAXPAXH@Z   @737
   ?lea@?$TrivTraits@$0BA@@@SAPAXPAXH@Z   @738
   ?monitor@GBitmap@@QBEPAVGMonitor@@XZ   @739
   ?reset_numcoder@JB2Codec@JB2Dict@@IAEXXZ   @740
   ?resize@?$GArrayTemplate@H@@QAEXHH@Z   @741
   ?resize@?$GArrayTemplate@ULibRect@JB2Dict@@@@QAEXHH@Z   @742
   ?resize@?$GPBuffer@I@@QAEXI@Z   @743
   ?rows@GBitmap@@QBEIXZ   @744
   ?rowsize@GBitmap@@QBEIXZ   @745
   ?set_dict_callback@Decode@JB2Codec@JB2Dict@@QAEXP6A?AV?$GP@VJB2Dict@@@@PAX@Z0@Z   @746
   ?set_dimension@JB2Image@@QAEXHH@Z   @747
   ?set_inherited_dict@JB2Dict@@QAEXABV?$GP@VJB2Dict@@@@@Z   @748
   ?shift_cross_context@JB2Codec@JB2Dict@@KAHHHQBE0000H@Z   @749
   ?shift_direct_context@JB2Codec@JB2Dict@@KAHHHQBE00H@Z   @750
   ?size@?$GArrayTemplate@ULibRect@JB2Dict@@@@QBEHXZ   @751
   ?size@?$GArrayTemplate@VJB2Blit@@@@QBEHXZ   @752
   ?size@?$GArrayTemplate@VJB2Shape@@@@QBEHXZ   @753
   ?theTraits@?1??traits@?$NormTraits@VJB2Shape@@@@SAABUTraits@@XZ@4U3@B   @754
   ?theTraits@?1??traits@?$TrivTraits@$03@@SAABUTraits@@XZ@4U3@B   @755
   ?theTraits@?1??traits@?$TrivTraits@$07@@SAABUTraits@@XZ@4U3@B   @756
   ?theTraits@?1??traits@?$TrivTraits@$0BA@@@SAABUTraits@@XZ@4U3@B   @757
   ?touch@?$GArrayTemplate@H@@QAEXH@Z   @758
   ?touch@?$GArrayTemplate@ULibRect@JB2Dict@@@@QAEXH@Z   @759
   ?touch@?$GArrayTemplate@VJB2Blit@@@@QAEXH@Z   @760
   ?touch@?$GArrayTemplate@VJB2Shape@@@@QAEXH@Z   @761
   ?traits@?$NormTraits@VJB2Shape@@@@SAABUTraits@@XZ   @762
   ?traits@?$TrivTraits@$03@@SAABUTraits@@XZ   @763
   ?traits@?$TrivTraits@$07@@SAABUTraits@@XZ   @764
   ?traits@?$TrivTraits@$0BA@@@SAABUTraits@@XZ   @765
   ?update_short_list@JB2Codec@JB2Dict@@IAEHH@Z   @766
   ?width@GRect@@QBEHXZ   @767
   ??0Encode@JB2Codec@JB2Dict@@QAE@XZ   @768
   ??1Encode@JB2Codec@JB2Dict@@UAE@XZ   @769
   ??7GBaseString@@QBE_NXZ   @770
   ?CodeBit@Encode@JB2Codec@JB2Dict@@MAE_N_NAAE@Z   @771
   ?CodeNum@Encode@JB2Codec@JB2Dict@@IAEXHHHAAI@Z   @772
   ?code@Encode@JB2Codec@JB2Dict@@QAEXABV?$GP@VJB2Dict@@@@@Z   @773
   ?code@Encode@JB2Codec@JB2Dict@@QAEXABV?$GP@VJB2Image@@@@@Z   @774
   ?code@Encode@JB2Codec@JB2Dict@@QAEXPAV3@@Z   @775
   ?code@Encode@JB2Codec@JB2Dict@@QAEXPAVJB2Image@@@Z   @776
   ?code_absolute_location@Encode@JB2Codec@JB2Dict@@MAEXPAVJB2Blit@@HH@Z   @777
   ?code_absolute_mark_size@Encode@JB2Codec@JB2Dict@@MAEXAAVGBitmap@@H@Z   @778
   ?code_bitmap_by_cross_coding@Encode@JB2Codec@JB2Dict@@MAEXAAVGBitmap@@0HHHHPAE1111@Z   @779
   ?code_bitmap_directly@Encode@JB2Codec@JB2Dict@@MAEXAAVGBitmap@@HHPAE11@Z   @780
   ?code_comment@Encode@JB2Codec@JB2Dict@@MAEXAAVGUTF8String@@@Z   @781
   ?code_image_size@Encode@JB2Codec@JB2Dict@@MAEXAAV3@@Z   @782
   ?code_image_size@Encode@JB2Codec@JB2Dict@@MAEXAAVJB2Image@@@Z   @783
   ?code_inherited_shape_count@Encode@JB2Codec@JB2Dict@@MAEXAAV3@@Z   @784
   ?code_match_index@Encode@JB2Codec@JB2Dict@@MAEHAAHAAV3@@Z   @785
   ?code_record_type@Encode@JB2Codec@JB2Dict@@MAEXAAH@Z   @786
   ?code_relative_mark_size@Encode@JB2Codec@JB2Dict@@MAEXAAVGBitmap@@HHH@Z   @787
   ?encode@JB2Dict@@QBEXABV?$GP@VByteStream@@@@@Z   @788
   ?encode@JB2Image@@QBEXABV?$GP@VByteStream@@@@@Z   @789
   ?encode_libonly_shape@Encode@JB2Codec@JB2Dict@@IAEXABV?$GP@VJB2Image@@@@H@Z   @790
   ?encoder@ZPCodec@@QAEXHAAE@Z   @791
   ?get_blit@JB2Image@@QAEPAVJB2Blit@@H@Z   @792
   ?get_diff@Encode@JB2Codec@JB2Dict@@MAEHHAAI@Z   @793
   ?get_height@JB2Image@@QBEHXZ   @794
   ?get_width@JB2Image@@QBEHXZ   @795
   ?init@Encode@JB2Codec@JB2Dict@@QAEXABV?$GP@VByteStream@@@@@Z   @796
   ??0?$GP@VByteStream@@@@QAE@PAVByteStream@@@Z   @797
   ??0?$GP@VIW44Image@@@@QAE@PAVIW44Image@@@Z   @798
   ??0?$GPBuffer@F@@QAE@AAPAFI@Z   @799
   ??0Block@IW44Image@@QAE@XZ   @800
   ??0Codec@IW44Image@@IAE@AAVMap@1@@Z   @801
   ??0Decode@Codec@IW44Image@@QAE@AAVMap@2@@Z   @802
   ??0IW44Image@@IAE@XZ   @803
   ??0IWBitmap@@IAE@XZ   @804
   ??0IWEncoderParms@@QAE@XZ   @805
   ??0IWPixmap@@IAE@XZ   @806
   ??0Map@IW44Image@@QAE@HH@Z   @807
   ??1?$GPBuffer@F@@QAE@XZ   @808
   ??1Codec@IW44Image@@UAE@XZ   @809
   ??1Decode@Codec@IW44Image@@UAE@XZ   @810
   ??1IW44Image@@UAE@XZ   @811
   ??1IWBitmap@@UAE@XZ   @812
   ??1IWPixmap@@UAE@XZ   @813
   ??1Map@IW44Image@@QAE@XZ   @814
   ??C?$GP@VGPixmap@@@@QBEPAVGPixmap@@XZ   @815
   ??_H@YGXPAXIHP6EX0@Z@Z   @816
   ?IWdecoder@ZPCodec@@QAEHXZ   @817
   ?YCbCr_to_RGB@Decode@Transform@IW44Image@@SAXPAUGPixel@@HHH@Z   @818
   ?alloc@Map@IW44Image@@QAEPAFH@Z   @819
   ?allocp@Map@IW44Image@@QAEPAPAFH@Z   @820
   ?backward@Decode@Transform@IW44Image@@SAXPAFHHHHH@Z   @821
   ?close_codec@IWBitmap@@UAEXXZ   @822
   ?close_codec@IWPixmap@@UAEXXZ   @823
   ?code_slice@Decode@Codec@IW44Image@@UAEHAAVZPCodec@@@Z   @824
   ?create_decode@IW44Image@@SA?AV?$GP@VIW44Image@@@@W4ImageType@1@@Z   @825
   ?data@Block@IW44Image@@QAEPAFHPAVMap@2@@Z   @826
   ?data@Block@IW44Image@@QBEPBFH@Z   @827
   ?decode@PrimaryHeader@IW44Image@@QAEXV?$GP@VByteStream@@@@@Z   @828
   ?decode@SecondaryHeader@IW44Image@@QAEXV?$GP@VByteStream@@@@@Z   @829
   ?decode@TertiaryHeader@IW44Image@@QAEXV?$GP@VByteStream@@@@HH@Z   @830
   ?decode_buckets@Codec@IW44Image@@QAEXAAVZPCodec@@HHAAVBlock@2@HH@Z   @831
   ?decode_chunk@IWBitmap@@UAEHV?$GP@VByteStream@@@@@Z   @832
   ?decode_chunk@IWPixmap@@UAEHV?$GP@VByteStream@@@@@Z   @833
   ?decode_iff@IWBitmap@@UAEXAAVIFFByteStream@@H@Z   @834
   ?decode_iff@IWPixmap@@UAEXAAVIFFByteStream@@H@Z   @835
   ?decode_prepare@Codec@IW44Image@@QAEHHHAAVBlock@2@@Z   @836
   ?encode_chunk@IW44Image@@UAEHV?$GP@VByteStream@@@@ABUIWEncoderParms@@@Z   @837
   ?encode_iff@IW44Image@@UAEXAAVIFFByteStream@@HPBUIWEncoderParms@@@Z   @838
   ?filter_begin@Transform@IW44Image@@KAXHH@Z   @839
   ?filter_end@Transform@IW44Image@@KAXXZ   @840
   ?finish_code_slice@Codec@IW44Image@@QAEHAAVZPCodec@@@Z   @841
   ?get_bitmap@IW44Image@@UAE?AV?$GP@VGBitmap@@@@HABVGRect@@@Z   @842
   ?get_bitmap@IW44Image@@UAE?AV?$GP@VGBitmap@@@@XZ   @843
   ?get_bitmap@IWBitmap@@UAE?AV?$GP@VGBitmap@@@@HABVGRect@@@Z   @844
   ?get_bitmap@IWBitmap@@UAE?AV?$GP@VGBitmap@@@@XZ   @845
   ?get_bucket_count@Map@IW44Image@@QBEHXZ   @846
   ?get_bytestream@IFFByteStream@@QAE?AV?$GP@VByteStream@@@@XZ   @847
   ?get_height@IW44Image@@QBEHXZ   @848
   ?get_memory_usage@IWBitmap@@UBEIXZ   @849
   ?get_memory_usage@IWPixmap@@UBEIXZ   @850
   ?get_memory_usage@Map@IW44Image@@QBEIXZ   @851
   ?get_percent_memory@IWBitmap@@UBEHXZ   @852
   ?get_percent_memory@IWPixmap@@UBEHXZ   @853
   ?get_pixmap@IW44Image@@UAE?AV?$GP@VGPixmap@@@@HABVGRect@@@Z   @854
   ?get_pixmap@IW44Image@@UAE?AV?$GP@VGPixmap@@@@XZ   @855
   ?get_pixmap@IWPixmap@@UAE?AV?$GP@VGPixmap@@@@HABVGRect@@@Z   @856
   ?get_pixmap@IWPixmap@@UAE?AV?$GP@VGPixmap@@@@XZ   @857
   ?get_serial@IWBitmap@@UAEHXZ   @858
   ?get_serial@IWPixmap@@UAEHXZ   @859
   ?get_width@IW44Image@@QBEHXZ   @860
   ?image@Map@IW44Image@@QAEXHABVGRect@@PACHHH@Z   @861
   ?image@Map@IW44Image@@QAEXPACHHH@Z   @862
   ?is_null_slice@Codec@IW44Image@@QAEHHH@Z   @863
   ?isempty@GRect@@QBE_NXZ   @864
   ?parm_crcbdelay@IW44Image@@UAEHH@Z   @865
   ?parm_crcbdelay@IWPixmap@@UAEHH@Z   @866
   ?parm_dbfrac@IWBitmap@@UAEXM@Z   @867
   ?parm_dbfrac@IWPixmap@@UAEXM@Z   @868
   ?read_liftblock@Block@IW44Image@@QAEXPBFPAVMap@2@@Z   @869
   ?rowsize@GPixmap@@QBEIXZ   @870
   ?write_liftblock@Block@IW44Image@@QBEXPAFHH@Z   @871
   ?zero@Block@IW44Image@@QAEXH@Z   @872
   ??0?$GP@VIW44Image@@@@QAE@ABV0@@Z   @873
   ??0?$GPBuffer@C@@QAE@AAPACI@Z   @874
   ??0?$GPBuffer@M@@QAE@AAPAMI@Z   @875
   ??0Encode@Codec@IW44Image@@QAE@AAVMap@2@@Z   @876
   ??0Encode@IWBitmap@@QAE@XZ   @877
   ??0Encode@IWPixmap@@QAE@XZ   @878
   ??0Encode@Map@IW44Image@@QAE@HH@Z   @879
   ??1?$GP@VIW44Image@@@@QAE@XZ   @880
   ??1?$GPBuffer@C@@QAE@XZ   @881
   ??1?$GPBuffer@M@@QAE@XZ   @882
   ??1Encode@Codec@IW44Image@@UAE@XZ   @883
   ??1Encode@IWBitmap@@UAE@XZ   @884
   ??1Encode@IWPixmap@@UAE@XZ   @885
   ??AGPixmap@@QBEPBUGPixel@@H@Z   @886
   ?IWencoder@ZPCodec@@QAEX_N@Z   @887
   ?RGB_to_Cb@Encode@Transform@IW44Image@@SAXPBUGPixel@@HHHPACH@Z   @888
   ?RGB_to_Cr@Encode@Transform@IW44Image@@SAXPBUGPixel@@HHHPACH@Z   @889
   ?RGB_to_Y@Encode@Transform@IW44Image@@SAXPBUGPixel@@HHHPACH@Z   @890
   ?close_codec@Encode@IWBitmap@@UAEXXZ   @891
   ?close_codec@Encode@IWPixmap@@UAEXXZ   @892
   ?code_slice@Encode@Codec@IW44Image@@UAEHAAVZPCodec@@@Z   @893
   ?columns@GPixmap@@QBEIXZ   @894
   ?create@Encode@Map@IW44Image@@QAEXPBCH0H@Z   @895
   ?create_encode@IW44Image@@SA?AV?$GP@VIW44Image@@@@ABVGBitmap@@V?$GP@VGBitmap@@@@@Z   @896
   ?create_encode@IW44Image@@SA?AV?$GP@VIW44Image@@@@ABVGPixmap@@V?$GP@VGBitmap@@@@W4CRCBMode@1@@Z   @897
   ?create_encode@IW44Image@@SA?AV?$GP@VIW44Image@@@@W4ImageType@1@@Z   @898
   ?encode@PrimaryHeader@IW44Image@@QAEXV?$GP@VByteStream@@@@@Z   @899
   ?encode@SecondaryHeader@IW44Image@@QAEXV?$GP@VByteStream@@@@@Z   @900
   ?encode@TertiaryHeader@IW44Image@@QAEXV?$GP@VByteStream@@@@@Z   @901
   ?encode_buckets@Encode@Codec@IW44Image@@QAEXAAVZPCodec@@HHAAVBlock@3@1HH@Z   @902
   ?encode_chunk@Encode@IWBitmap@@UAEHV?$GP@VByteStream@@@@ABUIWEncoderParms@@@Z   @903
   ?encode_chunk@Encode@IWPixmap@@UAEHV?$GP@VByteStream@@@@ABUIWEncoderParms@@@Z   @904
   ?encode_iff@Encode@IWBitmap@@UAEXAAVIFFByteStream@@HPBUIWEncoderParms@@@Z   @905
   ?encode_iff@Encode@IWPixmap@@UAEXAAVIFFByteStream@@HPBUIWEncoderParms@@@Z   @906
   ?encode_prepare@Encode@Codec@IW44Image@@QAEHHHHAAVBlock@3@0@Z   @907
   ?estimate_decibel@Encode@Codec@IW44Image@@QAEMM@Z   @908
   ?forward@Encode@Transform@IW44Image@@SAXPAFHHHHH@Z   @909
   ?get_grays@GBitmap@@QBEHXZ   @910
   ?init@Encode@IWBitmap@@QAEXABVGBitmap@@V?$GP@VGBitmap@@@@@Z   @911
   ?init@Encode@IWPixmap@@QAEXABVGPixmap@@V?$GP@VGBitmap@@@@W4CRCBMode@12@@Z   @912
   ?rows@GPixmap@@QBEIXZ   @913
   ?slashres@Encode@Map@IW44Image@@QAEXH@Z   @914
   ??0?$GP@VIFFByteStream@@@@QAE@PAVIFFByteStream@@@Z   @915
   ??0IFFByteStream@@IAE@ABV?$GP@VByteStream@@@@H@Z   @916
   ??0Wrapper@ByteStream@@IAE@ABV?$GP@VByteStream@@@@@Z   @917
   ??1IFFByteStream@@UAE@XZ   @918
   ??IWrapper@ByteStream@@QAEPAV1@XZ   @919
   ?check_id@IFFByteStream@@SAHPBD@Z   @920
   ?close_chunk@IFFByteStream@@QAEXXZ   @921
   ?compare@IFFByteStream@@QAE_NAAV1@@Z   @922
   ?composite@IFFByteStream@@QAEHXZ   @923
   ?create@IFFByteStream@@SA?AV?$GP@VIFFByteStream@@@@ABV?$GP@VByteStream@@@@@Z   @924
   ?flush@IFFByteStream@@UAEXXZ   @925
   ?flush@Wrapper@ByteStream@@UAEXXZ   @926
   ?full_id@IFFByteStream@@QAEXAAVGUTF8String@@@Z   @927
   ?get_chunk@IFFByteStream@@QAEHAAVGUTF8String@@PAH1@Z   @928
   ?put_chunk@IFFByteStream@@QAEXPBDH@Z   @929
   ?read@IFFByteStream@@UAEIPAXI@Z   @930
   ?read@Wrapper@ByteStream@@UAEIPAXI@Z   @931
   ?ready@IFFByteStream@@QAEHXZ   @932
   ?seek@Wrapper@ByteStream@@UAEHJH_N@Z   @933
   ?seek_close_chunk@IFFByteStream@@QAEXXZ   @934
   ?short_id@IFFByteStream@@QAEXAAVGUTF8String@@@Z   @935
   ?tell@IFFByteStream@@UBEJXZ   @936
   ?tell@Wrapper@ByteStream@@UBEJXZ   @937
   ?write@IFFByteStream@@UAEIPBXI@Z   @938
   ?write@Wrapper@ByteStream@@UAEIPBXI@Z   @939
   ??0?$ArrayBaseT@VGUTF8String@@@@IAE@XZ   @940
   ??0?$ArrayBaseT@VGUTF8String@@@@QAE@ABV0@@Z   @941
   ??0?$DArray@VGUTF8String@@@@QAE@ABV0@@Z   @942
   ??0?$DArray@VGUTF8String@@@@QAE@XZ   @943
   ??0?$GList@VGURL@@@@QAE@ABV0@@Z   @944
   ??0?$GList@VGURL@@@@QAE@XZ   @945
   ??0?$GListImpl@VGURL@@@@IAE@XZ   @946
   ??0?$GListImpl@VGURL@@@@QAE@ABV0@@Z   @947
   ??0?$GListTemplate@VGURL@@V1@@@QAE@ABV0@@Z   @948
   ??0?$GListTemplate@VGURL@@V1@@@QAE@XZ   @949
   ??0?$ListNode@VGURL@@@@QAE@ABU0@@Z   @950
   ??0?$ListNode@VGURL@@@@QAE@XZ   @951
   ??0ArrayBase@@IAE@XZ   @952
   ??0ArrayBase@@QAE@ABV0@@Z   @953
   ??0Filename@GURL@@QAE@ABVGNativeString@@@Z   @954
   ??0Filename@GURL@@QAE@ABVGUTF8String@@@Z   @955
   ??0GURL@@IAE@PBD@Z   @956
   ??0GURL@@QAE@ABV0@@Z   @957
   ??0GURL@@QAE@ABVGNativeString@@@Z   @958
   ??0GURL@@QAE@ABVGNativeString@@ABV0@@Z   @959
   ??0GURL@@QAE@ABVGUTF8String@@@Z   @960
   ??0GURL@@QAE@ABVGUTF8String@@ABV0@@Z   @961
   ??0GURL@@QAE@XZ   @962
   ??0Native@Filename@GURL@@QAE@ABVGNativeString@@@Z   @963
   ??0Native@GURL@@QAE@ABVGNativeString@@@Z   @964
   ??0Native@GURL@@QAE@ABVGNativeString@@ABV1@@Z   @965
   ??0UTF8@Filename@GURL@@QAE@ABVGUTF8String@@@Z   @966
   ??0UTF8@GURL@@QAE@ABVGUTF8String@@@Z   @967
   ??0UTF8@GURL@@QAE@ABVGUTF8String@@ABV1@@Z   @968
   ??0_ArrayBase@@QAE@ABV0@@Z   @969
   ??0_ArrayBase@@QAE@XZ   @970
   ??1?$GList@VGURL@@@@QAE@XZ   @971
   ??1?$GListImpl@VGURL@@@@QAE@XZ   @972
   ??1?$GListTemplate@VGURL@@V1@@@QAE@XZ   @973
   ??1?$ListNode@VGURL@@@@QAE@XZ   @974
   ??1Native@Filename@GURL@@UAE@XZ   @975
   ??1Native@GURL@@UAE@XZ   @976
   ??4GURL@@QAEAAV0@ABV0@@Z   @977
   ??4GUTF8String@@QAEAAV0@ABVGNativeString@@@Z   @978
   ??8@YA_NPBDABVGBaseString@@@Z   @979
   ??8GURL@@QBE_NABV0@@Z   @980
   ??A?$ArrayBaseT@VGUTF8String@@@@QAEAAVGUTF8String@@H@Z   @981
   ??A?$ArrayBaseT@VGUTF8String@@@@QBEABVGUTF8String@@H@Z   @982
   ??A?$GListTemplate@VGURL@@V1@@@QAEAAVGURL@@VGPosition@@@Z   @983
   ??B?$GListTemplate@VGURL@@V1@@@QBE?AVGPosition@@XZ   @984
   ??BGURL@@QBEPBDXZ   @985
   ?A2CT@@YAPBDPBD@Z   @986
   ?NativeFilename@GURL@@QBE?AVGNativeString@@XZ   @987
   ?UTF8Filename@GURL@@QBE?AVGUTF8String@@XZ   @988
   ?add_djvu_cgi_argument@GURL@@QAEXABVGUTF8String@@PBD@Z   @989
   ?append@?$GListTemplate@VGURL@@V1@@@QAEXABVGURL@@@Z   @990
   ?assign@_ArrayBase@@QAEAAV1@PAV_ArrayRep@@@Z   @991
   ?base@GURL@@QBE?AV1@XZ   @992
   ?beautify_path@GURL@@IAEXXZ   @993
   ?beautify_path@GURL@@KA?AVGUTF8String@@V2@@Z   @994
   ?cgi_arguments@GURL@@QBEHXZ   @995
   ?cgi_name@GURL@@QBE?AVGUTF8String@@H@Z   @996
   ?cgi_names@GURL@@QBE?AV?$DArray@VGUTF8String@@@@XZ   @997
   ?cgi_value@GURL@@QBE?AVGUTF8String@@H@Z   @998
   ?cgi_values@GURL@@QBE?AV?$DArray@VGUTF8String@@@@XZ   @999
   ?check@ArrayBase@@IAEXXZ   @1000
   ?clear_all_arguments@GURL@@QAEXXZ   @1001
   ?clear_cgi_arguments@GURL@@QAEXXZ   @1002
   ?clear_djvu_cgi_arguments@GURL@@QAEXXZ   @1003
   ?clear_hash_argument@GURL@@QAEXXZ   @1004
   ?cleardir@GURL@@QBEHH@Z   @1005
   ?convert_slashes@GURL@@IAEXXZ   @1006
   ?copy@?$DArray@VGUTF8String@@@@CAXPAXHHPBXHH@Z   @1007
   ?copy@?$NormTraits@U?$ListNode@VGURL@@@@@@SAXPAXPBXHH@Z   @1008
   ?decode_reserved@GURL@@SA?AVGUTF8String@@ABV2@@Z   @1009
   ?deletefile@GURL@@QBEHXZ   @1010
   ?destroy@?$DArray@VGUTF8String@@@@CAXPAXHH@Z   @1011
   ?detach@ArrayBase@@IAEXXZ   @1012
   ?djvu_cgi_arguments@GURL@@QBEHXZ   @1013
   ?djvu_cgi_name@GURL@@QBE?AVGUTF8String@@H@Z   @1014
   ?djvu_cgi_names@GURL@@QBE?AV?$DArray@VGUTF8String@@@@XZ   @1015
   ?djvu_cgi_value@GURL@@QBE?AVGUTF8String@@H@Z   @1016
   ?djvu_cgi_values@GURL@@QBE?AV?$DArray@VGUTF8String@@@@XZ   @1017
   ?empty@ArrayBase@@QAEXXZ   @1018
   ?empty@ArrayRep@@QAEXXZ   @1019
   ?encode_reserved@GURL@@SA?AVGUTF8String@@ABV2@@Z   @1020
   ?expand_name@GURL@@SA?AVGUTF8String@@ABV2@PBD@Z   @1021
   ?extension@GURL@@QBE?AVGUTF8String@@XZ   @1022
   ?fini@?$NormTraits@U?$ListNode@VGURL@@@@@@SAXPAXH@Z   @1023
   ?firstpos@?$GListTemplate@VGURL@@V1@@@QBE?AVGPosition@@XZ   @1024
   ?fname@GURL@@QBE?AVGUTF8String@@XZ   @1025
   ?follow_symlinks@GURL@@QBE?AV1@XZ   @1026
   ?get@_ArrayBase@@QBEPAV_ArrayRep@@XZ   @1027
   ?get_count@_ArrayRep@@QBEHXZ   @1028
   ?get_string@GURL@@QBE?AVGUTF8String@@ABV2@@Z   @1029
   ?get_string@GURL@@QBE?AVGUTF8String@@_N@Z   @1030
   ?hash@@YAIABVGURL@@@Z   @1031
   ?hash_argument@GURL@@QBE?AVGUTF8String@@XZ   @1032
   ?init1@?$DArray@VGUTF8String@@@@CAXPAXHH@Z   @1033
   ?init2@?$DArray@VGUTF8String@@@@CAXPAXHHPBXHH@Z   @1034
   ?init@?$NormTraits@U?$ListNode@VGURL@@@@@@SAXPAXH@Z   @1035
   ?init@GURL@@IAEX_N@Z   @1036
   ?insert@?$DArray@VGUTF8String@@@@CAXPAXHHPBXH@Z   @1037
   ?is_dir@GURL@@QBE_NXZ   @1038
   ?is_empty@GURL@@QBE_NXZ   @1039
   ?is_file@GURL@@QBE_NXZ   @1040
   ?is_local_file_url@GURL@@QBE_NXZ   @1041
   ?is_local_path@GURL@@QBE_NXZ   @1042
   ?is_valid@GBaseString@@QBE_NXZ   @1043
   ?is_valid@GURL@@QBE_NXZ   @1044
   ?lea@?$NormTraits@U?$ListNode@VGURL@@@@@@SAPAXPAXH@Z   @1045
   ?listdir@GURL@@QBE?AV?$GList@VGURL@@@@XZ   @1046
   ?mkdir@GURL@@QBEHXZ   @1047
   ?name@GURL@@QBE?AVGUTF8String@@XZ   @1048
   ?ncopy@GBaseString@@QBEHQAGH@Z   @1049
   ?newnode@?$GListImpl@VGURL@@@@KAPAUNode@@ABVGURL@@@Z   @1050
   ?parse_cgi_args@GURL@@IAEXXZ   @1051
   ?pathname@GURL@@QBE?AVGUTF8String@@XZ   @1052
   ?protocol@GURL@@KA?AVGUTF8String@@ABV2@@Z   @1053
   ?protocol@GURL@@QBE?AVGUTF8String@@XZ   @1054
   ?ref@_ArrayRep@@AAEXXZ   @1055
   ?renameto@GURL@@QBEHABV1@@Z   @1056
   ?resize@?$GPBuffer@D@@QAEXI@Z   @1057
   ?resize@ArrayBase@@QAEXH@Z   @1058
   ?resize@ArrayBase@@QAEXHH@Z   @1059
   ?search@GBaseString@@QBEHPBDH@Z   @1060
   ?set_hash_argument@GURL@@QAEXABVGUTF8String@@@Z   @1061
   ?size@ArrayBase@@QBEHXZ   @1062
   ?size@ArrayRep@@QBEHXZ   @1063
   ?store_cgi_args@GURL@@IAEXXZ   @1064
   ?theTraits@?1??traits@?$NormTraits@U?$ListNode@VGURL@@@@@@SAABUTraits@@XZ@4U3@B   @1065
   ?traits@?$NormTraits@U?$ListNode@VGURL@@@@@@SAABUTraits@@XZ   @1066
   ??0?$GP@VGStringRep@@@@QAE@ABV0@@Z   @1067
   ??0?$GP@VUnicode@GStringRep@@@@QAE@PAVUnicode@GStringRep@@@Z   @1068
   ??0Unicode@GStringRep@@QAE@XZ   @1069
   ??1Unicode@GStringRep@@UAE@XZ   @1070
   ??4?$GP@VGStringRep@@@@QAEAAV0@PAVGStringRep@@@Z   @1071
   ??B?$GP@VUnicode@GStringRep@@@@QBEPAVUnicode@GStringRep@@XZ   @1072
   ??C?$GP@VUnicode@GStringRep@@@@QBEPAVUnicode@GStringRep@@XZ   @1073
   ?create@GUTF8String@@SA?AV1@QBXIABV1@@Z   @1074
   ?create@GUTF8String@@SA?AV1@QBXIABV?$GP@VUnicode@GStringRep@@@@@Z   @1075
   ?create@GUTF8String@@SA?AV1@QBXIW4EncodeType@GStringRep@@@Z   @1076
   ?create@GUTF8String@@SA?AV1@QBXIW4EncodeType@GStringRep@@ABV1@@Z   @1077
   ?create@Unicode@GStringRep@@SA?AV?$GP@VGStringRep@@@@I@Z   @1078
   ?create@Unicode@GStringRep@@SA?AV?$GP@VGStringRep@@@@QBXIABV?$GP@VUnicode@GStringRep@@@@@Z   @1079
   ?create@Unicode@GStringRep@@SA?AV?$GP@VGStringRep@@@@QBXIV3@@Z   @1080
   ?create@Unicode@GStringRep@@SA?AV?$GP@VGStringRep@@@@QBXIW4EncodeType@2@@Z   @1081
   ?create@Unicode@GStringRep@@SA?AV?$GP@VGStringRep@@@@QBXIW4EncodeType@2@ABV3@@Z   @1082
   ?get_remainder@Unicode@GStringRep@@MBE?AV?$GP@VUnicode@GStringRep@@@@XZ   @1083
   ?isNative@GStringRep@@UBE_NXZ   @1084
   ?set_remainder@Unicode@GStringRep@@MAEXABV?$GP@VUnicode@GStringRep@@@@@Z   @1085
   ?set_remainder@Unicode@GStringRep@@MAEXQBXIABV?$GP@VGStringRep@@@@@Z   @1086
   ?set_remainder@Unicode@GStringRep@@MAEXQBXIW4EncodeType@2@@Z   @1087
   ??0GMonitor@@QAE@XZ   @1088
   ??1GMonitor@@QAE@XZ   @1089
   ??4GSafeFlags@@QAEAAV0@J@Z   @1090
   ??BGSafeFlags@@QBEJXZ   @1091
   ?broadcast@GMonitor@@QAEXXZ   @1092
   ?create@GThread@@QAEHP6AXPAX@Z0@Z   @1093
   ?enter@GMonitor@@QAEXXZ   @1094
   ?leave@GMonitor@@QAEXXZ   @1095
   ?signal@GMonitor@@QAEXXZ   @1096
   ?test_and_modify@GSafeFlags@@QAE_NJJJJ@Z   @1097
   ?wait@GMonitor@@QAEXK@Z   @1098
   ?wait@GMonitor@@QAEXXZ   @1099
   ?wait_and_modify@GSafeFlags@@QAEXJJJJ@Z   @1100
   ??0?$GP@VGStringRep@@@@QAE@PAVGStringRep@@@Z   @1101
   ??0ChangeLocale@GStringRep@@QAE@HQBD@Z   @1102
   ??0GNativeString@@QAE@ABV0@@Z   @1103
   ??0GNativeString@@QAE@ABV?$GP@VGStringRep@@@@@Z   @1104
   ??0GNativeString@@QAE@ABVGBaseString@@HH@Z   @1105
   ??0GNativeString@@QAE@D@Z   @1106
   ??0GNativeString@@QAE@H@Z   @1107
   ??0GNativeString@@QAE@N@Z   @1108
   ??0GNativeString@@QAE@PBD@Z   @1109
   ??0GNativeString@@QAE@PBDI@Z   @1110
   ??0GNativeString@@QAE@PBE@Z   @1111
   ??0GNativeString@@QAE@PBG@Z   @1112
   ??0GNativeString@@QAE@PBGI@Z   @1113
   ??0GNativeString@@QAE@PBK@Z   @1114
   ??0GNativeString@@QAE@PBKI@Z   @1115
   ??0GNativeString@@QAE@XZ   @1116
   ??0GStringRep@@QAE@XZ   @1117
   ??0GUTF8String@@QAE@ABV0@AAPAD@Z   @1118
   ??0GUTF8String@@QAE@ABVGBaseString@@HH@Z   @1119
   ??0GUTF8String@@QAE@D@Z   @1120
   ??0GUTF8String@@QAE@H@Z   @1121
   ??0GUTF8String@@QAE@N@Z   @1122
   ??0GUTF8String@@QAE@PBD@Z   @1123
   ??0GUTF8String@@QAE@PBDI@Z   @1124
   ??0GUTF8String@@QAE@PBE@Z   @1125
   ??0GUTF8String@@QAE@PBG@Z   @1126
   ??0GUTF8String@@QAE@PBGI@Z   @1127
   ??0GUTF8String@@QAE@PBK@Z   @1128
   ??0GUTF8String@@QAE@PBKI@Z   @1129
   ??0Native@GStringRep@@QAE@XZ   @1130
   ??0UTF8@GStringRep@@QAE@XZ   @1131
   ??1ChangeLocale@GStringRep@@QAE@XZ   @1132
   ??1GBaseString@@IAE@XZ   @1133
   ??1GNativeString@@QAE@XZ   @1134
   ??1GStringRep@@UAE@XZ   @1135
   ??1GUTF8String@@QAE@XZ   @1136
   ??1Native@GStringRep@@UAE@XZ   @1137
   ??1UTF8@GStringRep@@UAE@XZ   @1138
   ??4GNativeString@@QAEAAV0@ABV0@@Z   @1139
   ??4GNativeString@@QAEAAV0@D@Z   @1140
   ??4GNativeString@@QAEAAV0@PBD@Z   @1141
   ??4GUTF8String@@QAEAAV0@D@Z   @1142
   ??4GUTF8String@@QAEAAV0@PBD@Z   @1143
   ??D?$GP@VGStringRep@@@@QBEAAVGStringRep@@XZ   @1144
   ??H@YA?AVGNativeString@@PBDABV0@@Z   @1145
   ??H@YA?AVGUTF8String@@PBDABV0@@Z   @1146
   ??HGBaseString@@QBE?AVGNativeString@@ABV1@@Z   @1147
   ??HGBaseString@@QBE?AVGUTF8String@@ABV1@@Z   @1148
   ??HGNativeString@@QBE?AV0@ABV0@@Z   @1149
   ??HGNativeString@@QBE?AV0@ABVGBaseString@@@Z   @1150
   ??HGNativeString@@QBE?AV0@PBD@Z   @1151
   ??HGNativeString@@QBE?AVGUTF8String@@ABV1@@Z   @1152
   ??HGUTF8String@@QBE?AV0@ABV0@@Z   @1153
   ??HGUTF8String@@QBE?AV0@ABVGBaseString@@@Z   @1154
   ??HGUTF8String@@QBE?AV0@ABVGNativeString@@@Z   @1155
   ??HGUTF8String@@QBE?AV0@PBD@Z   @1156
   ??YGNativeString@@QAEAAV0@ABVGBaseString@@@Z   @1157
   ??YGNativeString@@QAEAAV0@D@Z   @1158
   ??YGNativeString@@QAEAAV0@PBD@Z   @1159
   ??YGUTF8String@@QAEAAV0@ABVGBaseString@@@Z   @1160
   ??YGUTF8String@@QAEAAV0@D@Z   @1161
   ??YGUTF8String@@QAEAAV0@PBD@Z   @1162
   ?NativeToUTF8@GBaseString@@QBE?AVGUTF8String@@XZ   @1163
   ?NativeToUTF8@GStringRep@@SA?AV?$GP@VGStringRep@@@@PBD@Z   @1164
   ?UCS4toNative@GStringRep@@SAPAEKPAEPAH@Z   @1165
   ?UCS4toString@Native@GStringRep@@UBEPAEKPAEPAH@Z   @1166
   ?UCS4toString@UTF8@GStringRep@@UBEPAEKPAEPAH@Z   @1167
   ?UCS4toUTF16@GStringRep@@SAHKAAG0@Z   @1168
   ?UCS4toUTF8@GStringRep@@SAPAEKPAE@Z   @1169
   ?UTF16toUCS4@GStringRep@@SAHAAKQBGQBX@Z   @1170
   ?UTF8ToNative@GBaseString@@QBE?AVGNativeString@@_NW4EscapeMode@1@@Z   @1171
   ?UTF8ToNative@GStringRep@@SA?AV?$GP@VGStringRep@@@@PBDW4EscapeMode@1@@Z   @1172
   ?UTF8toUCS4@GStringRep@@SAKAAPBEQBX@Z   @1173
   ?append@GStringRep@@QBE?AV?$GP@VGStringRep@@@@PBD@Z   @1174
   ?append@Native@GStringRep@@UBE?AV?$GP@VGStringRep@@@@ABV3@@Z   @1175
   ?append@UTF8@GStringRep@@UBE?AV?$GP@VGStringRep@@@@ABV3@@Z   @1176
   ?blank@Native@GStringRep@@UBE?AV?$GP@VGStringRep@@@@I@Z   @1177
   ?blank@UTF8@GStringRep@@UBE?AV?$GP@VGStringRep@@@@I@Z   @1178
   ?cmp@GStringRep@@QBEHPBDH@Z   @1179
   ?cmp@GStringRep@@SAHABV?$GP@VGStringRep@@@@0H@Z   @1180
   ?cmp@GStringRep@@SAHABV?$GP@VGStringRep@@@@PBDH@Z   @1181
   ?cmp@GStringRep@@SAHPBD0H@Z   @1182
   ?cmp@GStringRep@@SAHPBDABV?$GP@VGStringRep@@@@H@Z   @1183
   ?cmp@Native@GStringRep@@UBEHABV?$GP@VGStringRep@@@@H@Z   @1184
   ?cmp@UTF8@GStringRep@@UBEHABV?$GP@VGStringRep@@@@H@Z   @1185
   ?concat@GStringRep@@QBE?AV?$GP@VGStringRep@@@@ABV2@0@Z   @1186
   ?concat@GStringRep@@QBE?AV?$GP@VGStringRep@@@@ABV2@PBD@Z   @1187
   ?concat@GStringRep@@QBE?AV?$GP@VGStringRep@@@@PBD0@Z   @1188
   ?concat@GStringRep@@QBE?AV?$GP@VGStringRep@@@@PBDABV2@@Z   @1189
   ?contains@GStringRep@@QBEHQBDH@Z   @1190
   ?create@GStringRep@@SA?AV?$GP@VGStringRep@@@@IPAVNative@1@@Z   @1191
   ?create@GStringRep@@SA?AV?$GP@VGStringRep@@@@IPAVUTF8@1@@Z   @1192
   ?create@Native@GStringRep@@SA?AV?$GP@VGStringRep@@@@ABV3@0@Z   @1193
   ?create@Native@GStringRep@@SA?AV?$GP@VGStringRep@@@@ABV3@PBD@Z   @1194
   ?create@Native@GStringRep@@SA?AV?$GP@VGStringRep@@@@I@Z   @1195
   ?create@Native@GStringRep@@SA?AV?$GP@VGStringRep@@@@PBD0@Z   @1196
   ?create@Native@GStringRep@@SA?AV?$GP@VGStringRep@@@@PBD@Z   @1197
   ?create@Native@GStringRep@@SA?AV?$GP@VGStringRep@@@@PBDABV3@@Z   @1198
   ?create@Native@GStringRep@@SA?AV?$GP@VGStringRep@@@@PBDHH@Z   @1199
   ?create@Native@GStringRep@@SA?AV?$GP@VGStringRep@@@@PBGHH@Z   @1200
   ?create@Native@GStringRep@@SA?AV?$GP@VGStringRep@@@@PBKHH@Z   @1201
   ?create@Native@GStringRep@@SA?AV?$GP@VGStringRep@@@@QBDAAPAD@Z   @1202
   ?create@UTF8@GStringRep@@SA?AV?$GP@VGStringRep@@@@ABV3@0@Z   @1203
   ?create@UTF8@GStringRep@@SA?AV?$GP@VGStringRep@@@@ABV3@PBD@Z   @1204
   ?create@UTF8@GStringRep@@SA?AV?$GP@VGStringRep@@@@I@Z   @1205
   ?create@UTF8@GStringRep@@SA?AV?$GP@VGStringRep@@@@PBD0@Z   @1206
   ?create@UTF8@GStringRep@@SA?AV?$GP@VGStringRep@@@@PBD@Z   @1207
   ?create@UTF8@GStringRep@@SA?AV?$GP@VGStringRep@@@@PBDABV3@@Z   @1208
   ?create@UTF8@GStringRep@@SA?AV?$GP@VGStringRep@@@@PBDHH@Z   @1209
   ?create@UTF8@GStringRep@@SA?AV?$GP@VGStringRep@@@@PBGHH@Z   @1210
   ?create@UTF8@GStringRep@@SA?AV?$GP@VGStringRep@@@@PBKHH@Z   @1211
   ?create@UTF8@GStringRep@@SA?AV?$GP@VGStringRep@@@@QBDAAPAD@Z   @1212
   ?create_format@Native@GStringRep@@SA?AV?$GP@VGStringRep@@@@QBDZZ   @1213
   ?create_format@UTF8@GStringRep@@SA?AV?$GP@VGStringRep@@@@QBDZZ   @1214
   ?downcase@GStringRep@@QBE?AV?$GP@VGStringRep@@@@XZ   @1215
   ?empty@GBaseString@@QAEXXZ   @1216
   ?firstEndSpace@GStringRep@@QBEHHH@Z   @1217
   ?format@GNativeString@@QAAAAV1@PBDZZ   @1218
   ?format@GUTF8String@@QAAAAV1@PBDZZ   @1219
   ?fromEscaped@GUTF8String@@QBE?AV1@V?$GMap@VGUTF8String@@V1@@@@Z   @1220
   ?fromEscaped@GUTF8String@@QBE?AV1@XZ   @1221
   ?getNative2UTF8@GBaseString@@QBE?AVGUTF8String@@XZ   @1222
   ?getUCS4@GStringRep@@QBEHAAKH@Z   @1223
   ?getUTF82Native@GBaseString@@QBE?AVGNativeString@@W4EscapeMode@1@@Z   @1224
   ?getValidUCS4@Native@GStringRep@@MBEKAAPBD@Z   @1225
   ?getValidUCS4@UTF8@GStringRep@@MBEKAAPBD@Z   @1226
   ?get_remainder@GStringRep@@MBE?AV?$GP@VUnicode@GStringRep@@@@XZ   @1227
   ?getbuf@GNativeString@@QAEPADH@Z   @1228
   ?getbuf@GStringRep@@QBE?AV?$GP@VGStringRep@@@@H@Z   @1229
   ?getbuf@GUTF8String@@QAEPADH@Z   @1230
   ?giswlower@GStringRep@@KA_NK@Z   @1231
   ?giswspace@GStringRep@@KA_NK@Z   @1232
   ?giswupper@GStringRep@@KA_NK@Z   @1233
   ?gtowlower@GStringRep@@KAKK@Z   @1234
   ?gtowupper@GStringRep@@KAKK@Z   @1235
   ?hash@@YAIABVGBaseString@@@Z   @1236
   ?init@GBaseString@@IAEAAV1@ABV?$GP@VGStringRep@@@@@Z   @1237
   ?init@GNativeString@@QAEAAV1@ABV?$GP@VGStringRep@@@@@Z   @1238
   ?init@GNativeString@@QAEXXZ   @1239
   ?isCharType@GStringRep@@IBEPBDP6A_NK@ZPBD_N@Z   @1240
   ?isNative@Native@GStringRep@@UBE_NXZ   @1241
   ?isUTF8@GStringRep@@UBE_NXZ   @1242
   ?isUTF8@UTF8@GStringRep@@UBE_NXZ   @1243
   ?is_float@GBaseString@@QBE_NXZ   @1244
   ?is_int@GBaseString@@QBE_NXZ   @1245
   ?is_valid@Native@GStringRep@@UBE_NXZ   @1246
   ?is_valid@UTF8@GStringRep@@UBE_NXZ   @1247
   ?ncopy@Native@GStringRep@@UBEHQAGH@Z   @1248
   ?ncopy@UTF8@GStringRep@@UBEHQAGH@Z   @1249
   ?nextChar@GStringRep@@QBEHH@Z   @1250
   ?nextCharType@GStringRep@@IBEHP6A_NK@ZHH_N@Z   @1251
   ?nextNonSpace@GStringRep@@QBEHHH@Z   @1252
   ?nextSpace@GStringRep@@QBEHHH@Z   @1253
   ?nullstr@GBaseString@@1PBDB   @1254
   ?rcontains@GStringRep@@QBEHQBDH@Z   @1255
   ?rsearch@GStringRep@@QBEHDH@Z   @1256
   ?rsearch@GStringRep@@QBEHPBDH@Z   @1257
   ?search@GStringRep@@QBEHDH@Z   @1258
   ?search@GStringRep@@QBEHPBDH@Z   @1259
   ?set_remainder@GStringRep@@MAEXABV?$GP@VUnicode@GStringRep@@@@@Z   @1260
   ?set_remainder@GStringRep@@MAEXQBXIABV?$GP@VGStringRep@@@@@Z   @1261
   ?set_remainder@GStringRep@@MAEXQBXIW4EncodeType@1@@Z   @1262
   ?setat@GNativeString@@QAEXHD@Z   @1263
   ?setat@GStringRep@@QBE?AV?$GP@VGStringRep@@@@HD@Z   @1264
   ?setat@GUTF8String@@QAEXHD@Z   @1265
   ?size@?$GMapTemplate@VGUTF8String@@V1@V1@@@QBEHXZ   @1266
   ?strdup@GStringRep@@QBE?AV?$GP@VGStringRep@@@@PBD@Z   @1267
   ?substr@GStringRep@@QBE?AV?$GP@VGStringRep@@@@PBDHH@Z   @1268
   ?substr@GStringRep@@QBE?AV?$GP@VGStringRep@@@@PBGHH@Z   @1269
   ?substr@GStringRep@@QBE?AV?$GP@VGStringRep@@@@PBKHH@Z   @1270
   ?substr@GUTF8String@@QBE?AV1@HH@Z   @1271
   ?throw_illegal_subscript@GBaseString@@KAXXZ   @1272
   ?toDouble@Native@GStringRep@@UBENHAAH@Z   @1273
   ?toDouble@UTF8@GStringRep@@UBENHAAH@Z   @1274
   ?toEscaped@GStringRep@@QBE?AV?$GP@VGStringRep@@@@_N@Z   @1275
   ?toInt@Native@GStringRep@@UBEHXZ   @1276
   ?toInt@UTF8@GStringRep@@UBEHXZ   @1277
   ?toLong@Native@GStringRep@@UBEJHAAHH@Z   @1278
   ?toLong@UTF8@GStringRep@@UBEJHAAHH@Z   @1279
   ?toNative@Native@GStringRep@@UBE?AV?$GP@VGStringRep@@@@W4EscapeMode@2@@Z   @1280
   ?toNative@UTF8@GStringRep@@UBE?AV?$GP@VGStringRep@@@@W4EscapeMode@2@@Z   @1281
   ?toThis@Native@GStringRep@@UBE?AV?$GP@VGStringRep@@@@ABV3@0@Z   @1282
   ?toThis@UTF8@GStringRep@@UBE?AV?$GP@VGStringRep@@@@ABV3@0@Z   @1283
   ?toULong@Native@GStringRep@@UBEKHAAHH@Z   @1284
   ?toULong@UTF8@GStringRep@@UBEKHAAHH@Z   @1285
   ?toUTF8@Native@GStringRep@@UBE?AV?$GP@VGStringRep@@@@_N@Z   @1286
   ?toUTF8@UTF8@GStringRep@@UBE?AV?$GP@VGStringRep@@@@_N@Z   @1287
   ?tocase@GStringRep@@IBE?AV?$GP@VGStringRep@@@@P6A_NK@ZP6AKK@Z@Z   @1288
   ?upcase@GStringRep@@QBE?AV?$GP@VGStringRep@@@@XZ   @1289
   ?vformat@GStringRep@@QBE?AV?$GP@VGStringRep@@@@PAD@Z   @1290
   ??0GPBufferBase@@QAE@AAPAXII@Z   @1291
   ??1GPBufferBase@@QAE@XZ   @1292
   ??1GPEnabled@@UAE@XZ   @1293
   ?assign@GPBase@@QAEAAV1@ABV1@@Z   @1294
   ?assign@GPBase@@QAEAAV1@PAVGPEnabled@@@Z   @1295
   ?destroy@GPEnabled@@AAEXXZ   @1296
   ?ref@GPEnabled@@AAEXXZ   @1297
   ?replace@GPBufferBase@@QAEXPAXI@Z   @1298
   ?resize@GPBufferBase@@QAEXII@Z   @1299
   ?set@GPBufferBase@@QAEXID@Z   @1300
   ?swap@GPBufferBase@@QAEXAAV1@@Z   @1301
   ?unref@GPEnabled@@AAEXXZ   @1302
   ??0?$GPBuffer@H@@QAE@AAPAHI@Z   @1303
   ??0?$GPBuffer@UGPixel@@@@QAE@AAPAUGPixel@@I@Z   @1304
   ??0GBitmapScaler@@IAE@HHHH@Z   @1305
   ??0GBitmapScaler@@IAE@XZ   @1306
   ??0GPixmapScaler@@IAE@HHHH@Z   @1307
   ??0GPixmapScaler@@IAE@XZ   @1308
   ??0GScaler@@IAE@XZ   @1309
   ??1?$GPBuffer@H@@QAE@XZ   @1310
   ??1?$GPBuffer@UGPixel@@@@QAE@XZ   @1311
   ??1GBitmapScaler@@UAE@XZ   @1312
   ??1GPixmapScaler@@UAE@XZ   @1313
   ??1GScaler@@UAE@XZ   @1314
   ?get_input_rect@GScaler@@QAEXABVGRect@@AAV2@@Z   @1315
   ?get_line@GBitmapScaler@@IAEPAEHABVGRect@@0ABVGBitmap@@@Z   @1316
   ?get_line@GPixmapScaler@@IAEPAUGPixel@@HABVGRect@@0ABVGPixmap@@@Z   @1317
   ?make_rectangles@GScaler@@IAEXABVGRect@@AAV2@1@Z   @1318
   ?resize@?$GPBuffer@H@@QAEXI@Z   @1319
   ?resize@?$GPBuffer@UGPixel@@@@QAEXI@Z   @1320
   ?scale@GBitmapScaler@@QAEXABVGRect@@ABVGBitmap@@0AAV3@@Z   @1321
   ?scale@GPixmapScaler@@QAEXABVGRect@@ABVGPixmap@@0AAV3@@Z   @1322
   ?set_horz_ratio@GScaler@@QAEXHH@Z   @1323
   ?set_input_size@GScaler@@QAEXHH@Z   @1324
   ?set_output_size@GScaler@@QAEXHH@Z   @1325
   ?set_vert_ratio@GScaler@@QAEXHH@Z   @1326
   ??0GRatio@GRectMapper@@QAE@HH@Z   @1327
   ??0GRatio@GRectMapper@@QAE@XZ   @1328
   ??0GRectMapper@@QAE@XZ   @1329
   ??8@YAHABVGRect@@0@Z   @1330
   ??D@YAHHUGRatio@GRectMapper@@@Z   @1331
   ??K@YAHHUGRatio@GRectMapper@@@Z   @1332
   ?clear@GRectMapper@@QAEXXZ   @1333
   ?contains@GRect@@QBEHABV1@@Z   @1334
   ?get_input@GRectMapper@@QAE?AVGRect@@XZ   @1335
   ?get_output@GRectMapper@@QAE?AVGRect@@XZ   @1336
   ?inflate@GRect@@QAEHHH@Z   @1337
   ?intersect@GRect@@QAEHABV1@0@Z   @1338
   ?map@GRectMapper@@QAEXAAH0@Z   @1339
   ?map@GRectMapper@@QAEXAAVGRect@@@Z   @1340
   ?mirrorx@GRectMapper@@QAEXXZ   @1341
   ?mirrory@GRectMapper@@QAEXXZ   @1342
   ?precalc@GRectMapper@@AAEXXZ   @1343
   ?recthull@GRect@@QAEHABV1@0@Z   @1344
   ?rotate@GRectMapper@@QAEXH@Z   @1345
   ?scale@GRect@@QAEXM@Z   @1346
   ?scale@GRect@@QAEXMM@Z   @1347
   ?set_input@GRectMapper@@QAEXABVGRect@@@Z   @1348
   ?set_output@GRectMapper@@QAEXABVGRect@@@Z   @1349
   ?translate@GRect@@QAEHHH@Z   @1350
   ?unmap@GRectMapper@@QAEXAAH0@Z   @1351
   ?unmap@GRectMapper@@QAEXAAVGRect@@@Z   @1352
   ??0?$GArrayTemplate@E@@QAE@ABUTraits@@@Z   @1353
   ??0?$GArrayTemplate@E@@QAE@ABUTraits@@HH@Z   @1354
   ??0?$GTArray@E@@QAE@H@Z   @1355
   ??0?$GTArray@E@@QAE@XZ   @1356
   ??0GPixmap@@IAE@AAVByteStream@@@Z   @1357
   ??0GPixmap@@IAE@ABV0@@Z   @1358
   ??0GPixmap@@IAE@ABV0@ABVGRect@@@Z   @1359
   ??0GPixmap@@IAE@ABVGBitmap@@@Z   @1360
   ??0GPixmap@@IAE@ABVGBitmap@@ABVGRect@@@Z   @1361
   ??0GPixmap@@IAE@HHPBUGPixel@@@Z   @1362
   ??0GPixmap@@IAE@XZ   @1363
   ??1?$GArrayTemplate@E@@QAE@XZ   @1364
   ??1?$GTArray@E@@QAE@XZ   @1365
   ??1GPixmap@@UAE@XZ   @1366
   ??4?$GP@VGPixmap@@@@QAEAAV0@PAVGPixmap@@@Z   @1367
   ??A?$GArrayTemplate@E@@QAEAAEH@Z   @1368
   ??A?$GArrayTemplate@E@@QAEAAEI@Z   @1369
   ??B?$GArrayTemplate@E@@QAEPAEXZ   @1370
   ??C?$GP@VJPEGImage@@@@QBEPAVJPEGImage@@XZ   @1371
   ?BLACK@GPixel@@2U1@B   @1372
   ?BLUE@GPixel@@2U1@B   @1373
   ?GREEN@GPixel@@2U1@B   @1374
   ?RED@GPixel@@2U1@B   @1375
   ?WHITE@GPixel@@2U1@B   @1376
   ?attenuate@GPixmap@@QAEXPBVGBitmap@@HH@Z   @1377
   ?blend@GPixmap@@QAEXPBVGBitmap@@HHPBV1@@Z   @1378
   ?blit@GPixmap@@QAEXPBVGBitmap@@HHPBUGPixel@@@Z   @1379
   ?blit@GPixmap@@QAEXPBVGBitmap@@HHPBV1@@Z   @1380
   ?clear@?$GPBuffer@UGPixel@@@@QAEXXZ   @1381
   ?color_correct@GPixmap@@QAEXN@Z   @1382
   ?color_correct@GPixmap@@SAXNPAUGPixel@@H@Z   @1383
   ?copy@?$TrivTraits@$00@@SAXPAXPBXHH@Z   @1384
   ?destroy@GPixmap@@QAEXXZ   @1385
   ?donate_data@GPixmap@@QAEXPAUGPixel@@HH@Z   @1386
   ?downsample43@GPixmap@@QAEXPBV1@PBVGRect@@@Z   @1387
   ?downsample@GPixmap@@QAEXPBV1@HPBVGRect@@@Z   @1388
   ?fini@?$TrivTraits@$00@@SAXPAXH@Z   @1389
   ?init@?$TrivTraits@$00@@SAXPAXH@Z   @1390
   ?init@GPixmap@@QAEXAAVByteStream@@@Z   @1391
   ?init@GPixmap@@QAEXABV1@@Z   @1392
   ?init@GPixmap@@QAEXABV1@ABVGRect@@@Z   @1393
   ?init@GPixmap@@QAEXABVGBitmap@@ABVGRect@@PBUGPixel@@@Z   @1394
   ?init@GPixmap@@QAEXABVGBitmap@@PBUGPixel@@@Z   @1395
   ?init@GPixmap@@QAEXHHPBUGPixel@@@Z   @1396
   ?lea@?$TrivTraits@$00@@SAPAXPAXH@Z   @1397
   ?ordered_32k_dither@GPixmap@@QAEXHH@Z   @1398
   ?ordered_666_dither@GPixmap@@QAEXHH@Z   @1399
   ?resize@?$GArrayTemplate@E@@QAEXHH@Z   @1400
   ?rotate@GPixmap@@QAE?AV?$GP@VGPixmap@@@@H@Z   @1401
   ?save_ppm@GPixmap@@QBEXAAVByteStream@@H@Z   @1402
   ?stencil@GPixmap@@QAEXPBVGBitmap@@PBV1@HPBVGRect@@N@Z   @1403
   ?take_data@GPixmap@@QAEPAUGPixel@@AAI@Z   @1404
   ?theTraits@?1??traits@?$TrivTraits@$00@@SAABUTraits@@XZ@4U3@B   @1405
   ?traits@?$TrivTraits@$00@@SAABUTraits@@XZ   @1406
   ?upsample23@GPixmap@@QAEXPBV1@PBVGRect@@@Z   @1407
   ?upsample@GPixmap@@QAEXPBV1@HPBVGRect@@@Z   @1408
   ?basename@GOS@@SA?AVGUTF8String@@ABV2@PBD@Z   @1409
   ?cwd@GOS@@SA?AVGUTF8String@@ABV2@@Z   @1410
   ?getenv@GOS@@SA?AVGUTF8String@@ABV2@@Z   @1411
   ?rcontains@GBaseString@@QBEHQBDH@Z   @1412
   ?sleep@GOS@@SAXH@Z   @1413
   ?ticks@GOS@@SAKXZ   @1414
   ??0?$GArrayTemplate@H@@QAE@ABV0@@Z   @1415
   ??0?$GP@VGMapArea@@@@QAE@PAVGMapArea@@@Z   @1416
   ??0?$GTArray@H@@QAE@ABV0@@Z   @1417
   ??0GMapArea@@IAE@XZ   @1418
   ??0GMapArea@@QAE@ABV0@@Z   @1419
   ??0GMapOval@@IAE@ABVGRect@@@Z   @1420
   ??0GMapOval@@IAE@XZ   @1421
   ??0GMapOval@@QAE@ABV0@@Z   @1422
   ??0GMapPoly@@IAE@PBH0H_N@Z   @1423
   ??0GMapPoly@@IAE@XZ   @1424
   ??0GMapPoly@@QAE@ABV0@@Z   @1425
   ??0GMapRect@@IAE@ABVGRect@@@Z   @1426
   ??0GMapRect@@IAE@XZ   @1427
   ??0GMapRect@@QAE@ABV0@@Z   @1428
   ??1GMapArea@@UAE@XZ   @1429
   ??1GMapOval@@UAE@XZ   @1430
   ??1GMapPoly@@UAE@XZ   @1431
   ??1GMapRect@@UAE@XZ   @1432
   ??4GMapRect@@QAEAAV0@ABVGRect@@@Z   @1433
   ??A?$GArrayTemplate@H@@QBEABHH@Z   @1434
   ?BORDER_AVIS_TAG@GMapArea@@2QBDB   @1435
   ?HILITE_TAG@GMapArea@@2QBDB   @1436
   ?MAPAREA_TAG@GMapArea@@2QBDB   @1437
   ?NO_BORDER_TAG@GMapArea@@2QBDB   @1438
   ?OVAL_TAG@GMapArea@@2QBDB   @1439
   ?POLY_TAG@GMapArea@@2QBDB   @1440
   ?RECT_TAG@GMapArea@@2QBDB   @1441
   ?SHADOW_EIN_BORDER_TAG@GMapArea@@2QBDB   @1442
   ?SHADOW_EOUT_BORDER_TAG@GMapArea@@2QBDB   @1443
   ?SHADOW_IN_BORDER_TAG@GMapArea@@2QBDB   @1444
   ?SHADOW_OUT_BORDER_TAG@GMapArea@@2QBDB   @1445
   ?SOLID_BORDER_TAG@GMapArea@@2QBDB   @1446
   ?TARGET_SELF@GMapArea@@2QBDB   @1447
   ?URL_TAG@GMapArea@@2QBDB   @1448
   ?XOR_BORDER_TAG@GMapArea@@2QBDB   @1449
   ?add_vertex@GMapPoly@@QAEHHH@Z   @1450
   ?are_segments_parallel@GMapPoly@@CA_NHHHHHHHH@Z   @1451
   ?check_data@GMapPoly@@QAEQBDXZ   @1452
   ?check_object@GMapArea@@QAEQBDXZ   @1453
   ?clear_bounds@GMapArea@@IAEXXZ   @1454
   ?close_poly@GMapPoly@@QAEXXZ   @1455
   ?do_segments_intersect@GMapPoly@@CA_NHHHHHHHH@Z   @1456
   ?does_side_cross_rect@GMapPoly@@QAE_NABVGRect@@H@Z   @1457
   ?get_bound_rect@GMapArea@@QBE?AVGRect@@XZ   @1458
   ?get_coords@GMapArea@@UBEXAAV?$GList@H@@@Z   @1459
   ?get_coords@GMapPoly@@UBEXAAV?$GList@H@@@Z   @1460
   ?get_copy@GMapOval@@UBE?AV?$GP@VGMapArea@@@@XZ   @1461
   ?get_copy@GMapPoly@@UBE?AV?$GP@VGMapArea@@@@XZ   @1462
   ?get_copy@GMapRect@@UBE?AV?$GP@VGMapArea@@@@XZ   @1463
   ?get_shape_name@GMapOval@@UBEQBDXZ   @1464
   ?get_shape_name@GMapPoly@@UBEQBDXZ   @1465
   ?get_shape_name@GMapRect@@UBEQBDXZ   @1466
   ?get_shape_type@GMapArea@@UBE?BW4MapAreaType@1@XZ   @1467
   ?get_shape_type@GMapOval@@UBE?BW4MapAreaType@GMapArea@@XZ   @1468
   ?get_shape_type@GMapPoly@@UBE?BW4MapAreaType@GMapArea@@XZ   @1469
   ?get_shape_type@GMapRect@@UBE?BW4MapAreaType@GMapArea@@XZ   @1470
   ?get_xmax@GMapArea@@QBEHXZ   @1471
   ?get_xmin@GMapArea@@QBEHXZ   @1472
   ?get_xmltag@GMapOval@@UBE?AVGUTF8String@@H@Z   @1473
   ?get_xmltag@GMapPoly@@UBE?AVGUTF8String@@H@Z   @1474
   ?get_xmltag@GMapRect@@UBE?AVGUTF8String@@H@Z   @1475
   ?get_ymax@GMapArea@@QBEHXZ   @1476
   ?get_ymin@GMapArea@@QBEHXZ   @1477
   ?gma_check_object@GMapOval@@MBEQBDXZ   @1478
   ?gma_check_object@GMapPoly@@MBEQBDXZ   @1479
   ?gma_check_object@GMapRect@@MBEQBDXZ   @1480
   ?gma_get_xmax@GMapOval@@MBEHXZ   @1481
   ?gma_get_xmax@GMapPoly@@MBEHXZ   @1482
   ?gma_get_xmax@GMapRect@@MBEHXZ   @1483
   ?gma_get_xmin@GMapOval@@MBEHXZ   @1484
   ?gma_get_xmin@GMapPoly@@MBEHXZ   @1485
   ?gma_get_xmin@GMapRect@@MBEHXZ   @1486
   ?gma_get_ymax@GMapOval@@MBEHXZ   @1487
   ?gma_get_ymax@GMapPoly@@MBEHXZ   @1488
   ?gma_get_ymax@GMapRect@@MBEHXZ   @1489
   ?gma_get_ymin@GMapOval@@MBEHXZ   @1490
   ?gma_get_ymin@GMapPoly@@MBEHXZ   @1491
   ?gma_get_ymin@GMapRect@@MBEHXZ   @1492
   ?gma_is_point_inside@GMapOval@@MBE_NHH@Z   @1493
   ?gma_is_point_inside@GMapPoly@@MBE_NHH@Z   @1494
   ?gma_is_point_inside@GMapRect@@MBE_NHH@Z   @1495
   ?gma_move@GMapOval@@MAEXHH@Z   @1496
   ?gma_move@GMapPoly@@MAEXHH@Z   @1497
   ?gma_move@GMapRect@@MAEXHH@Z   @1498
   ?gma_print@GMapOval@@MAE?AVGUTF8String@@XZ   @1499
   ?gma_print@GMapPoly@@MAE?AVGUTF8String@@XZ   @1500
   ?gma_print@GMapRect@@MAE?AVGUTF8String@@XZ   @1501
   ?gma_resize@GMapOval@@MAEXHH@Z   @1502
   ?gma_resize@GMapPoly@@MAEXHH@Z   @1503
   ?gma_resize@GMapRect@@MAEXHH@Z   @1504
   ?gma_transform@GMapOval@@MAEXABVGRect@@@Z   @1505
   ?gma_transform@GMapPoly@@MAEXABVGRect@@@Z   @1506
   ?gma_transform@GMapRect@@MAEXABVGRect@@@Z   @1507
   ?initialize@GMapOval@@AAEXXZ   @1508
   ?initialize_bounds@GMapArea@@AAEXXZ   @1509
   ?is_point_inside@GMapArea@@QBE_NHH@Z   @1510
   ?is_projection_on_segment@GMapPoly@@CA_NHHHHHH@Z   @1511
   ?map@GMapOval@@UAEXAAVGRectMapper@@@Z   @1512
   ?map@GMapPoly@@UAEXAAVGRectMapper@@@Z   @1513
   ?map@GMapRect@@UAEXAAVGRectMapper@@@Z   @1514
   ?move@GMapArea@@QAEXHH@Z   @1515
   ?move_vertex@GMapPoly@@QAEXHHH@Z   @1516
   ?optimize_data@GMapPoly@@QAEXXZ   @1517
   ?print@GMapArea@@QAE?AVGUTF8String@@XZ   @1518
   ?resize@?$GArrayTemplate@H@@QAEXH@Z   @1519
   ?resize@GMapArea@@QAEXHH@Z   @1520
   ?sign@GMapPoly@@CAHH@Z   @1521
   ?transform@GMapArea@@QAEXABVGRect@@@Z   @1522
   ?unmap@GMapOval@@UAEXAAVGRectMapper@@@Z   @1523
   ?unmap@GMapPoly@@UAEXAAVGRectMapper@@@Z   @1524
   ?unmap@GMapRect@@UAEXAAVGRectMapper@@@Z   @1525
   ??0?$ArrayBaseT@D@@IAE@XZ   @1526
   ??0?$ArrayBaseT@D@@QAE@ABV0@@Z   @1527
   ??0?$GListTemplate@V?$GP@VGIFFChunk@@@@VGPBase@@@@QAE@XZ   @1528
   ??0?$GP@VGIFFChunk@@@@QAE@ABV0@@Z   @1529
   ??0?$GP@VGIFFChunk@@@@QAE@PAVGIFFChunk@@@Z   @1530
   ??0?$GP@VGIFFChunk@@@@QAE@XZ   @1531
   ??0?$GP@VGIFFManager@@@@QAE@ABV0@@Z   @1532
   ??0?$GP@VGIFFManager@@@@QAE@PAVGIFFManager@@@Z   @1533
   ??0?$GPList@VGIFFChunk@@@@QAE@XZ   @1534
   ??0?$TArray@D@@QAE@ABV0@@Z   @1535
   ??0?$TArray@D@@QAE@H@Z   @1536
   ??0?$TArray@D@@QAE@XZ   @1537
   ??0GIFFChunk@@IAE@ABVGUTF8String@@@Z   @1538
   ??0GIFFChunk@@IAE@ABVGUTF8String@@ABV?$TArray@D@@@Z   @1539
   ??0GIFFChunk@@IAE@XZ   @1540
   ??0GIFFManager@@IAE@XZ   @1541
   ??1?$ArrayBaseT@D@@UAE@XZ   @1542
   ??1?$GListTemplate@V?$GP@VGIFFChunk@@@@VGPBase@@@@QAE@XZ   @1543
   ??1?$GP@VGIFFChunk@@@@QAE@XZ   @1544
   ??1?$GP@VGIFFManager@@@@QAE@XZ   @1545
   ??1?$GP@VIFFByteStream@@@@QAE@XZ   @1546
   ??1?$GPList@VGIFFChunk@@@@QAE@XZ   @1547
   ??1?$TArray@D@@UAE@XZ   @1548
   ??1GIFFChunk@@UAE@XZ   @1549
   ??1GIFFManager@@UAE@XZ   @1550
   ??4?$ArrayBaseT@D@@QAEAAV0@ABV0@@Z   @1551
   ??4?$GP@VGIFFChunk@@@@QAEAAV0@ABV0@@Z   @1552
   ??4?$TArray@D@@QAEAAV0@ABV0@@Z   @1553
   ??4ArrayBase@@QAEAAV0@ABV0@@Z   @1554
   ??4_ArrayBase@@QAEAAV0@ABV0@@Z   @1555
   ??7?$GP@VGIFFChunk@@@@QBEHXZ   @1556
   ??A?$GListTemplate@V?$GP@VGIFFChunk@@@@VGPBase@@@@QAEAAV?$GP@VGIFFChunk@@@@VGPosition@@@Z   @1557
   ??B?$ArrayBaseT@D@@QAEPADXZ   @1558
   ??B?$ArrayBaseT@D@@QBEPBDXZ   @1559
   ??B?$GListTemplate@V?$GP@VGIFFChunk@@@@VGPBase@@@@QBE?AVGPosition@@XZ   @1560
   ??B?$GP@VGIFFChunk@@@@QBEPAVGIFFChunk@@XZ   @1561
   ??C?$GP@VGIFFChunk@@@@QBEPAVGIFFChunk@@XZ   @1562
   ??D?$GP@VIFFByteStream@@@@QBEAAVIFFByteStream@@XZ   @1563
   ?add_chunk@GIFFChunk@@QAEXABV?$GP@VGIFFChunk@@@@H@Z   @1564
   ?add_chunk@GIFFManager@@QAEXVGUTF8String@@ABV?$GP@VGIFFChunk@@@@H@Z   @1565
   ?add_chunk@GIFFManager@@QAEXVGUTF8String@@ABV?$TArray@D@@@Z   @1566
   ?append@?$GListTemplate@V?$GP@VGIFFChunk@@@@VGPBase@@@@QAEXABV?$GP@VGIFFChunk@@@@@Z   @1567
   ?check_name@GIFFChunk@@QAE_NVGUTF8String@@@Z   @1568
   ?contains@GBaseString@@QBEHQBDH@Z   @1569
   ?create@GIFFChunk@@SA?AV?$GP@VGIFFChunk@@@@ABVGUTF8String@@@Z   @1570
   ?create@GIFFChunk@@SA?AV?$GP@VGIFFChunk@@@@ABVGUTF8String@@ABV?$TArray@D@@@Z   @1571
   ?create@GIFFChunk@@SA?AV?$GP@VGIFFChunk@@@@XZ   @1572
   ?create@GIFFManager@@SA?AV?$GP@VGIFFManager@@@@ABVGUTF8String@@@Z   @1573
   ?create@GIFFManager@@SA?AV?$GP@VGIFFManager@@@@XZ   @1574
   ?decode_name@GIFFChunk@@CA?AVGUTF8String@@ABV2@AAH@Z   @1575
   ?del@?$GListTemplate@V?$GP@VGIFFChunk@@@@VGPBase@@@@QAEXAAVGPosition@@@Z   @1576
   ?del_chunk@GIFFChunk@@QAEXABVGUTF8String@@@Z   @1577
   ?del_chunk@GIFFManager@@QAEXVGUTF8String@@@Z   @1578
   ?del_chunk@GIFFManager@@QAEXXZ   @1579
   ?destroy@?$TArray@D@@CAXPAXHH@Z   @1580
   ?firstpos@?$GListTemplate@V?$GP@VGIFFChunk@@@@VGPBase@@@@QBE?AVGPosition@@XZ   @1581
   ?get_chunk@GIFFChunk@@QAE?AV?$GP@VGIFFChunk@@@@ABVGUTF8String@@PAH@Z   @1582
   ?get_chunk@GIFFManager@@QAE?AV?$GP@VGIFFChunk@@@@VGUTF8String@@PAH@Z   @1583
   ?get_chunks_number@GIFFChunk@@QAEHABVGUTF8String@@@Z   @1584
   ?get_chunks_number@GIFFChunk@@QAEHXZ   @1585
   ?get_chunks_number@GIFFManager@@QAEHABVGUTF8String@@@Z   @1586
   ?get_chunks_number@GIFFManager@@QAEHXZ   @1587
   ?get_full_name@GIFFChunk@@QBE?AVGUTF8String@@XZ   @1588
   ?get_name@GIFFChunk@@QBE?AVGUTF8String@@XZ   @1589
   ?get_type@GIFFChunk@@QBE?AVGUTF8String@@XZ   @1590
   ?init1@?$TArray@D@@CAXPAXHH@Z   @1591
   ?init2@?$TArray@D@@CAXPAXHHPBXHH@Z   @1592
   ?init@GIFFManager@@IAEXABVGUTF8String@@@Z   @1593
   ?init@GIFFManager@@IAEXXZ   @1594
   ?insert@?$TArray@D@@CAXPAXHHPBXH@Z   @1595
   ?insert_before@?$GListTemplate@V?$GP@VGIFFChunk@@@@VGPBase@@@@QAEXVGPosition@@ABV?$GP@VGIFFChunk@@@@@Z   @1596
   ?is_container@GIFFChunk@@QBE_NXZ   @1597
   ?load_chunk@GIFFManager@@QAEXAAVIFFByteStream@@V?$GP@VGIFFChunk@@@@@Z   @1598
   ?load_file@GIFFManager@@QAEXABV?$TArray@D@@@Z   @1599
   ?load_file@GIFFManager@@QAEXV?$GP@VByteStream@@@@@Z   @1600
   ?nth@?$GListTemplate@V?$GP@VGIFFChunk@@@@VGPBase@@@@QBE?AVGPosition@@I@Z   @1601
   ?nth@?$GListTemplate@V?$GP@VGIFFChunk@@@@VGPBase@@@@QBEHIAAVGPosition@@@Z   @1602
   ?rsearch@GBaseString@@QBEHDH@Z   @1603
   ?save@GIFFChunk@@QAEXAAVIFFByteStream@@_N@Z   @1604
   ?save_file@GIFFManager@@QAEXAAV?$TArray@D@@@Z   @1605
   ?save_file@GIFFManager@@QAEXV?$GP@VByteStream@@@@@Z   @1606
   ?set_name@GIFFChunk@@QAEXVGUTF8String@@@Z   @1607
   ?set_name@GIFFManager@@QAEXABVGUTF8String@@@Z   @1608
   ?size@?$GListTemplate@V?$GP@VGIFFChunk@@@@VGPBase@@@@QBEHXZ   @1609
   ??0GException@@QAE@ABV0@@Z   @1610
   ??0GException@@QAE@PBD0H0W4source_type@0@@Z   @1611
   ??0GException@@QAE@XZ   @1612
   ??1GException@@UAE@XZ   @1613
   ??4GException@@QAEAAV0@ABV0@@Z   @1614
   ??_R0?AVGException@@@8   @1615
   ?cmp_cause@GException@@QBEHQBD@Z   @1616
   ?cmp_cause@GException@@SAHQBD0@Z   @1617
   ?exthrow@GExceptionHandler@@SAXABVGException@@@Z   @1618
   ?get_cause@GException@@QBEPBDXZ   @1619
   ?outofmemory@GException@@2QBDB   @1620
   ?perror@GException@@QBEXXZ   @1621
   ?rethrow@GExceptionHandler@@SAXXZ   @1622
   ??0?$GPBuffer@PAUHNode@@@@QAE@AAPAPAUHNode@@I@Z   @1623
   ??0GArrayBase@@QAE@ABUTraits@@@Z   @1624
   ??0GArrayBase@@QAE@ABUTraits@@HH@Z   @1625
   ??0GArrayBase@@QAE@ABV0@@Z   @1626
   ??0GListBase@@IAE@ABUTraits@@@Z   @1627
   ??0GListBase@@IAE@ABV0@@Z   @1628
   ??0GSetBase@@IAE@ABUTraits@@@Z   @1629
   ??0GSetBase@@IAE@ABV0@@Z   @1630
   ??1?$GPBuffer@PAUHNode@@@@QAE@XZ   @1631
   ??1GArrayBase@@QAE@XZ   @1632
   ??1GListBase@@QAE@XZ   @1633
   ??1GSetBase@@QAE@XZ   @1634
   ??4GArrayBase@@QAEAAV0@ABV0@@Z   @1635
   ??4GListBase@@QAEAAV0@ABV0@@Z   @1636
   ??4GSetBase@@QAEAAV0@ABV0@@Z   @1637
   ?append@GListBase@@IAEXPAUNode@@@Z   @1638
   ?clear@?$GPBuffer@PAUHNode@@@@QAEXXZ   @1639
   ?del@GArrayBase@@QAEXHH@Z   @1640
   ?del@GListBase@@IAEXAAVGPosition@@@Z   @1641
   ?del@GSetBase@@QAEXAAVGPosition@@@Z   @1642
   ?deletenode@GSetBase@@IAEXPAUHNode@@@Z   @1643
   ?empty@GArrayBase@@QAEXXZ   @1644
   ?empty@GListBase@@QAEXXZ   @1645
   ?empty@GSetBase@@QAEXXZ   @1646
   ?firstpos@GSetBase@@QBE?AVGPosition@@XZ   @1647
   ?hashnode@GSetBase@@IBEPAUHNode@@I@Z   @1648
   ?ins@GArrayBase@@QAEXHPBXH@Z   @1649
   ?insert_after@GListBase@@IAEXVGPosition@@PAUNode@@@Z   @1650
   ?insert_before@GListBase@@IAEXVGPosition@@AAV1@AAV2@@Z   @1651
   ?insert_before@GListBase@@IAEXVGPosition@@PAUNode@@@Z   @1652
   ?insertnode@GSetBase@@AAEXPAUHNode@@@Z   @1653
   ?installnode@GSetBase@@IAEPAUHNode@@PAU2@@Z   @1654
   ?nth@GListBase@@QBE?AVGPosition@@I@Z   @1655
   ?prepend@GListBase@@IAEXPAUNode@@@Z   @1656
   ?rehash@GSetBase@@AAEXH@Z   @1657
   ?resize@?$GPBuffer@PAUHNode@@@@QAEXI@Z   @1658
   ?resize@GArrayBase@@QAEXHH@Z   @1659
   ?shift@GArrayBase@@QAEXH@Z   @1660
   ?steal@GArrayBase@@QAEXAAV1@@Z   @1661
   ?throw_invalid@GPosition@@IBEXPAX@Z   @1662
   ?touch@GArrayBase@@QAEXH@Z   @1663
   ??0?$GP@VZeroBuffer@GBitmap@@@@QAE@ABV0@@Z   @1664
   ??0?$GP@VZeroBuffer@GBitmap@@@@QAE@XZ   @1665
   ??0?$GPBuffer@PAE@@QAE@AAPAPAEI@Z   @1666
   ??0?$GTArray@E@@QAE@HH@Z   @1667
   ??0GBitmap@@IAE@AAVByteStream@@H@Z   @1668
   ??0GBitmap@@IAE@ABV0@@Z   @1669
   ??0GBitmap@@IAE@ABV0@ABVGRect@@H@Z   @1670
   ??0GBitmap@@IAE@ABV0@H@Z   @1671
   ??0GBitmap@@IAE@HHH@Z   @1672
   ??0GBitmap@@IAE@XZ   @1673
   ??0ZeroBuffer@GBitmap@@QAE@I@Z   @1674
   ??1?$GP@VZeroBuffer@GBitmap@@@@QAE@XZ   @1675
   ??1?$GPBuffer@PAE@@QAE@XZ   @1676
   ??1GBitmap@@UAE@XZ   @1677
   ??1ZeroBuffer@GBitmap@@UAE@XZ   @1678
   ??4?$GP@VGBitmap@@@@QAEAAV0@PAVGBitmap@@@Z   @1679
   ??4?$GP@VZeroBuffer@GBitmap@@@@QAEAAV0@ABV0@@Z   @1680
   ??4?$GP@VZeroBuffer@GBitmap@@@@QAEAAV0@PAVZeroBuffer@GBitmap@@@Z   @1681
   ?append_line@GBitmap@@CAXAAPAEPBEH_N@Z   @1682
   ?append_long_run@GBitmap@@CAXAAPAEH@Z   @1683
   ?binarize_grays@GBitmap@@QAEXH@Z   @1684
   ?blit@GBitmap@@QAEXPBV1@HH@Z   @1685
   ?blit@GBitmap@@QAEXPBV1@HHH@Z   @1686
   ?change_grays@GBitmap@@QAEXH@Z   @1687
   ?clear@GRect@@QAEXXZ   @1688
   ?compress@GBitmap@@QAEXXZ   @1689
   ?decode@GBitmap@@AAEXPAE@Z   @1690
   ?destroy@GBitmap@@QAEXXZ   @1691
   ?donate_data@GBitmap@@QAEXPAEHH@Z   @1692
   ?donate_rle@GBitmap@@QAEXPAEIHH@Z   @1693
   ?encode@GBitmap@@ABEHAAPAEAAV?$GPBuffer@E@@@Z   @1694
   ?euclidian_ratio@GBitmap@@CAXHHAAH0@Z   @1695
   ?fill@GBitmap@@QAEXE@Z   @1696
   ?get_memory_usage@GBitmap@@QBEIXZ   @1697
   ?get_rle@GBitmap@@QAEPBEAAI@Z   @1698
   ?init@GBitmap@@QAEXAAVByteStream@@H@Z   @1699
   ?init@GBitmap@@QAEXABV1@ABVGRect@@H@Z   @1700
   ?init@GBitmap@@QAEXABV1@H@Z   @1701
   ?init@GBitmap@@QAEXHHH@Z   @1702
   ?makerows@GBitmap@@CAXHHPAEQAPAE@Z   @1703
   ?minborder@GBitmap@@QAEXH@Z   @1704
   ?read_integer@GBitmap@@CAIAADAAVByteStream@@@Z   @1705
   ?read_pbm_raw@GBitmap@@AAEXAAVByteStream@@@Z   @1706
   ?read_pbm_text@GBitmap@@AAEXAAVByteStream@@@Z   @1707
   ?read_pgm_raw@GBitmap@@AAEXAAVByteStream@@H@Z   @1708
   ?read_pgm_text@GBitmap@@AAEXAAVByteStream@@H@Z   @1709
   ?read_rle_raw@GBitmap@@AAEXAAVByteStream@@@Z   @1710
   ?read_run@GBitmap@@SAHAAPAE@Z   @1711
   ?read_run@GBitmap@@SAHAAPBE@Z   @1712
   ?resize@?$GPBuffer@PAE@@QAEXI@Z   @1713
   ?rle_get_bitmap@GBitmap@@SAXHAAPBEPAE_N@Z   @1714
   ?rle_get_bits@GBitmap@@QBEHHPAE@Z   @1715
   ?rle_get_rect@GBitmap@@QBEHAAVGRect@@@Z   @1716
   ?rle_get_runs@GBitmap@@QBEHHPAH@Z   @1717
   ?rotate@GBitmap@@QAE?AV?$GP@VGBitmap@@@@H@Z   @1718
   ?save_pbm@GBitmap@@QAEXAAVByteStream@@H@Z   @1719
   ?save_pgm@GBitmap@@QAEXAAVByteStream@@H@Z   @1720
   ?save_rle@GBitmap@@QAEXAAVByteStream@@@Z   @1721
   ?set_grays@GBitmap@@QAEXH@Z   @1722
   ?share@GBitmap@@QAEXXZ   @1723
   ?take_data@GBitmap@@QAEPAEAAI@Z   @1724
   ?uncompress@GBitmap@@QAEXXZ   @1725
   ?zerobuffer@GBitmap@@0PAEA   @1726
   ?zeroes@GBitmap@@CA?AV?$GP@VZeroBuffer@GBitmap@@@@H@Z   @1727
   ?zerosize@GBitmap@@0HA   @1728
   ??0?$GArrayTemplate@H@@QAE@ABUTraits@@HH@Z   @1729
   ??0?$GP@VDataPool@@@@QAE@ABV0@@Z   @1730
   ??0?$GP@VDecodePort@DjVuToPS@@@@QAE@PAVDecodePort@DjVuToPS@@@Z   @1731
   ??0?$GP@VDecodePort@DjVuToPS@@@@QAE@XZ   @1732
   ??0?$GP@VDjVuImage@@@@QAE@XZ   @1733
   ??0?$GP@VGPixmap@@@@QAE@XZ   @1734
   ??0?$GTArray@H@@QAE@HH@Z   @1735
   ??0DecodePort@DjVuToPS@@IAE@XZ   @1736
   ??0DjVuToPS@@QAE@XZ   @1737
   ??0GEvent@@QAE@XZ   @1738
   ??0Options@DjVuToPS@@QAE@XZ   @1739
   ??1?$GP@VDataPool@@@@QAE@XZ   @1740
   ??1?$GP@VDecodePort@DjVuToPS@@@@QAE@XZ   @1741
   ??1?$GP@VDjVuPalette@@@@QAE@XZ   @1742
   ??1DecodePort@DjVuToPS@@UAE@XZ   @1743
   ??1GEvent@@QAE@XZ   @1744
   ??4?$GP@VDecodePort@DjVuToPS@@@@QAEAAV0@ABV0@@Z   @1745
   ??4?$GP@VDjVuImage@@@@QAEAAV0@ABV0@@Z   @1746
   ??4?$GP@VGPixmap@@@@QAEAAV0@ABV0@@Z   @1747
   ??7?$GP@VByteStream@@@@QBEHXZ   @1748
   ??7?$GP@VDecodePort@DjVuToPS@@@@QBEHXZ   @1749
   ??7?$GP@VDjVuImage@@@@QBEHXZ   @1750
   ??7?$GP@VGPixmap@@@@QBEHXZ   @1751
   ??A?$GArrayTemplate@F@@QAEAAFH@Z   @1752
   ??A?$GArrayTemplate@UPColor@DjVuPalette@@@@QBEABUPColor@DjVuPalette@@H@Z   @1753
   ??A?$GListTemplate@VZone@DjVuTXT@@V12@@@QAEAAVZone@DjVuTXT@@VGPosition@@@Z   @1754
   ??B?$GListTemplate@VZone@DjVuTXT@@V12@@@QBE?AVGPosition@@XZ   @1755
   ??B?$GP@VDecodePort@DjVuToPS@@@@QBEPAVDecodePort@DjVuToPS@@XZ   @1756
   ??B?$GP@VDjVuDocument@@@@QBEPAVDjVuDocument@@XZ   @1757
   ??B?$GP@VDjVuPalette@@@@QBEPAVDjVuPalette@@XZ   @1758
   ??B?$GP@VDjVuTXT@@@@QBEPAVDjVuTXT@@XZ   @1759
   ??B?$GP@VGPixmap@@@@QBEPAVGPixmap@@XZ   @1760
   ??B?$GP@VIW44Image@@@@QBEPAVIW44Image@@XZ   @1761
   ??C?$GP@VDataPool@@@@QBEPAVDataPool@@XZ   @1762
   ??C?$GP@VDecodePort@DjVuToPS@@@@QBEPAVDecodePort@DjVuToPS@@XZ   @1763
   ??C?$GP@VDjVuFile@@@@QBEPAVDjVuFile@@XZ   @1764
   ??C?$GP@VDjVuPalette@@@@QBEPAVDjVuPalette@@XZ   @1765
   ??C?$GP@VIFFByteStream@@@@QBEPAVIFFByteStream@@XZ   @1766
   ??C?$GP@VIW44Image@@@@QBEPAVIW44Image@@XZ   @1767
   ??D?$GP@VDjVuTXT@@@@QBEAAVDjVuTXT@@XZ   @1768
   ?copy@IFFByteStream@@QAEIAAVByteStream@@I@Z   @1769
   ?create@DecodePort@DjVuToPS@@SA?AV?$GP@VDecodePort@DjVuToPS@@@@XZ   @1770
   ?decode_page@DjVuToPS@@IAE?AV?$GP@VDjVuImage@@@@V?$GP@VDjVuDocument@@@@HHH@Z   @1771
   ?empty@?$GListTemplate@HH@@QAEXXZ   @1772
   ?firstpos@?$GListTemplate@VZone@DjVuTXT@@V12@@@QBE?AVGPosition@@XZ   @1773
   ?get_bookletalign@Options@DjVuToPS@@QAEHXZ   @1774
   ?get_bookletfold@Options@DjVuToPS@@QAEHH@Z   @1775
   ?get_bookletmax@Options@DjVuToPS@@QAEHXZ   @1776
   ?get_bookletmode@Options@DjVuToPS@@QBE?AW4BookletMode@12@XZ   @1777
   ?get_color@Options@DjVuToPS@@QBE_NXZ   @1778
   ?get_copies@Options@DjVuToPS@@QBEHXZ   @1779
   ?get_cropmarks@Options@DjVuToPS@@QBE_NXZ   @1780
   ?get_djvu_file@DjVuDocument@@QAE?AV?$GP@VDjVuFile@@@@H_N@Z   @1781
   ?get_djvu_file@DjVuImage@@QBE?AV?$GP@VDjVuFile@@@@XZ   @1782
   ?get_format@Options@DjVuToPS@@QBE?AW4Format@12@XZ   @1783
   ?get_frame@Options@DjVuToPS@@QBE_NXZ   @1784
   ?get_gamma@Options@DjVuToPS@@QBENXZ   @1785
   ?get_init_data_pool@DjVuFile@@QBE?AV?$GP@VDataPool@@@@XZ   @1786
   ?get_level@Options@DjVuToPS@@QBEHXZ   @1787
   ?get_mode@Options@DjVuToPS@@QBE?AW4Mode@12@XZ   @1788
   ?get_orientation@Options@DjVuToPS@@QBE?AW4Orientation@12@XZ   @1789
   ?get_page@DjVuDocument@@QAE?AV?$GP@VDjVuImage@@@@H_NPAVDjVuPort@@@Z   @1790
   ?get_sRGB@Options@DjVuToPS@@QBE_NXZ   @1791
   ?get_text@Options@DjVuToPS@@QBE_NXZ   @1792
   ?get_url@DjVuFile@@QBE?AVGURL@@XZ   @1793
   ?get_zoom@Options@DjVuToPS@@QBEHXZ   @1794
   ?index_to_color@DjVuPalette@@QBEXHAAUGPixel@@@Z   @1795
   ?index_to_color@DjVuPalette@@QBEXHPAE@Z   @1796
   ?inherits@DjVuPort@@UBE_NABVGUTF8String@@@Z   @1797
   ?is_decode_failed@DjVuFile@@QBE_NXZ   @1798
   ?is_decode_ok@DjVuFile@@QBE_NXZ   @1799
   ?is_decode_stopped@DjVuFile@@QBE_NXZ   @1800
   ?isempty@?$GListTemplate@VZone@DjVuTXT@@V12@@@QBE_NXZ   @1801
   ?make_gamma_ramp@DjVuToPS@@IAEXV?$GP@VDjVuImage@@@@@Z   @1802
   ?notify_decode_progress@DecodePort@DjVuToPS@@UAEXPBVDjVuPort@@N@Z   @1803
   ?notify_file_flags_changed@DecodePort@DjVuToPS@@UAEXPBVDjVuFile@@JJ@Z   @1804
   ?parse_range@DjVuToPS@@IAEXV?$GP@VDjVuDocument@@@@VGUTF8String@@AAV?$GList@H@@@Z   @1805
   ?print@DjVuToPS@@QAEXAAVByteStream@@V?$GP@VDjVuDocument@@@@@Z   @1806
   ?print@DjVuToPS@@QAEXAAVByteStream@@V?$GP@VDjVuDocument@@@@VGUTF8String@@@Z   @1807
   ?print@DjVuToPS@@QAEXAAVByteStream@@V?$GP@VDjVuImage@@@@ABVGRect@@2H@Z   @1808
   ?print_bg@DjVuToPS@@IAEXAAVByteStream@@V?$GP@VDjVuImage@@@@ABVGRect@@@Z   @1809
   ?print_fg@DjVuToPS@@IAEXAAVByteStream@@V?$GP@VDjVuImage@@@@ABVGRect@@@Z   @1810
   ?print_fg_2layer@DjVuToPS@@IAEXAAVByteStream@@V?$GP@VDjVuImage@@@@ABVGRect@@PAE@Z   @1811
   ?print_fg_3layer@DjVuToPS@@IAEXAAVByteStream@@V?$GP@VDjVuImage@@@@ABVGRect@@PAE@Z   @1812
   ?print_image@DjVuToPS@@IAEXAAVByteStream@@V?$GP@VDjVuImage@@@@ABVGRect@@V?$GP@VDjVuTXT@@@@@Z   @1813
   ?print_image_lev1@DjVuToPS@@IAEXAAVByteStream@@V?$GP@VDjVuImage@@@@ABVGRect@@@Z   @1814
   ?print_image_lev2@DjVuToPS@@IAEXAAVByteStream@@V?$GP@VDjVuImage@@@@ABVGRect@@@Z   @1815
   ?process_double_page@DjVuToPS@@IAEXAAVByteStream@@V?$GP@VDjVuDocument@@@@PAXHH@Z   @1816
   ?process_single_page@DjVuToPS@@IAEXAAVByteStream@@V?$GP@VDjVuDocument@@@@HHHH@Z   @1817
   ?set@GEvent@@QAEXXZ   @1818
   ?set_bookletalign@Options@DjVuToPS@@QAEXH@Z   @1819
   ?set_bookletfold@Options@DjVuToPS@@QAEXHH@Z   @1820
   ?set_bookletmax@Options@DjVuToPS@@QAEXH@Z   @1821
   ?set_bookletmode@Options@DjVuToPS@@QAEXW4BookletMode@12@@Z   @1822
   ?set_color@Options@DjVuToPS@@QAEX_N@Z   @1823
   ?set_copies@Options@DjVuToPS@@QAEXH@Z   @1824
   ?set_cropmarks@Options@DjVuToPS@@QAEX_N@Z   @1825
   ?set_dec_progress_cb@DjVuToPS@@QAEXP6AXNPAX@Z0@Z   @1826
   ?set_format@Options@DjVuToPS@@QAEXW4Format@12@@Z   @1827
   ?set_frame@Options@DjVuToPS@@QAEX_N@Z   @1828
   ?set_gamma@Options@DjVuToPS@@QAEXN@Z   @1829
   ?set_info_cb@DjVuToPS@@QAEXP6AXHHHW4Stage@1@PAX@Z1@Z   @1830
   ?set_level@Options@DjVuToPS@@QAEXH@Z   @1831
   ?set_mode@Options@DjVuToPS@@QAEXW4Mode@12@@Z   @1832
   ?set_orientation@Options@DjVuToPS@@QAEXW4Orientation@12@@Z   @1833
   ?set_prn_progress_cb@DjVuToPS@@QAEXP6AXNPAX@Z0@Z   @1834
   ?set_refresh_cb@DjVuToPS@@QAEXP6AXPAX@Z0@Z   @1835
   ?set_sRGB@Options@DjVuToPS@@QAEX_N@Z   @1836
   ?set_text@Options@DjVuToPS@@QAEX_N@Z   @1837
   ?set_zoom@Options@DjVuToPS@@QAEXH@Z   @1838
   ?size@?$GListTemplate@HH@@QBEHXZ   @1839
   ?store_doc_prolog@DjVuToPS@@IAEXAAVByteStream@@HHPAVGRect@@@Z   @1840
   ?store_doc_setup@DjVuToPS@@IAEXAAVByteStream@@@Z   @1841
   ?store_doc_trailer@DjVuToPS@@IAEXAAVByteStream@@@Z   @1842
   ?store_page_setup@DjVuToPS@@IAEXAAVByteStream@@HABVGRect@@H@Z   @1843
   ?store_page_trailer@DjVuToPS@@IAEXAAVByteStream@@@Z   @1844
   ?vformat@GUTF8String@@QAEAAV1@ABV1@AAPAD@Z   @1845
   ?wait@GEvent@@QAEXH@Z   @1846
   ??0?$GList@PAVZone@DjVuTXT@@@@QAE@ABV0@@Z   @1847
   ??0?$GList@PAVZone@DjVuTXT@@@@QAE@XZ   @1848
   ??0?$GList@VGRect@@@@QAE@ABV0@@Z   @1849
   ??0?$GList@VGRect@@@@QAE@XZ   @1850
   ??0?$GList@VZone@DjVuTXT@@@@QAE@ABV0@@Z   @1851
   ??0?$GList@VZone@DjVuTXT@@@@QAE@XZ   @1852
   ??0?$GListImpl@PAVZone@DjVuTXT@@@@IAE@XZ   @1853
   ??0?$GListImpl@PAVZone@DjVuTXT@@@@QAE@ABV0@@Z   @1854
   ??0?$GListImpl@VGRect@@@@IAE@XZ   @1855
   ??0?$GListImpl@VGRect@@@@QAE@ABV0@@Z   @1856
   ??0?$GListImpl@VZone@DjVuTXT@@@@IAE@XZ   @1857
   ??0?$GListImpl@VZone@DjVuTXT@@@@QAE@ABV0@@Z   @1858
   ??0?$GListTemplate@PAVZone@DjVuTXT@@PAV12@@@QAE@ABV0@@Z   @1859
   ??0?$GListTemplate@PAVZone@DjVuTXT@@PAV12@@@QAE@XZ   @1860
   ??0?$GListTemplate@VGRect@@V1@@@QAE@ABV0@@Z   @1861
   ??0?$GListTemplate@VGRect@@V1@@@QAE@XZ   @1862
   ??0?$GListTemplate@VZone@DjVuTXT@@V12@@@QAE@ABV0@@Z   @1863
   ??0?$GListTemplate@VZone@DjVuTXT@@V12@@@QAE@XZ   @1864
   ??0?$GP@VDjVuText@@@@QAE@ABV0@@Z   @1865
   ??0?$ListNode@VGRect@@@@QAE@XZ   @1866
   ??0?$ListNode@VZone@DjVuTXT@@@@QAE@ABU0@@Z   @1867
   ??0?$ListNode@VZone@DjVuTXT@@@@QAE@XZ   @1868
   ??0DjVuTXT@@QAE@ABV0@@Z   @1869
   ??0Zone@DjVuTXT@@QAE@ABV01@@Z   @1870
   ??0Zone@DjVuTXT@@QAE@XZ   @1871
   ??1?$GList@PAVZone@DjVuTXT@@@@QAE@XZ   @1872
   ??1?$GList@VGRect@@@@QAE@XZ   @1873
   ??1?$GListImpl@PAVZone@DjVuTXT@@@@QAE@XZ   @1874
   ??1?$GListImpl@VGRect@@@@QAE@XZ   @1875
   ??1?$GListTemplate@PAVZone@DjVuTXT@@PAV12@@@QAE@XZ   @1876
   ??1?$GListTemplate@VGRect@@V1@@@QAE@XZ   @1877
   ??1?$ListNode@VZone@DjVuTXT@@@@QAE@XZ   @1878
   ??4DjVuText@@QAEAAV0@ABV0@@Z   @1879
   ??4GPEnabled@@QAEAAV0@ABV0@@Z   @1880
   ??A?$GListTemplate@PAVZone@DjVuTXT@@PAV12@@@QAEAAPAVZone@DjVuTXT@@VGPosition@@@Z   @1881
   ??A?$GListTemplate@VZone@DjVuTXT@@V12@@@QBEABVZone@DjVuTXT@@VGPosition@@@Z   @1882
   ??B?$GListTemplate@PAVZone@DjVuTXT@@PAV12@@@QBE?AVGPosition@@XZ   @1883
   ??D?$GP@VDjVuText@@@@QBEAAVDjVuText@@XZ   @1884
   ??FGPosition@@QAEAAV0@XZ   @1885
   ?append@?$GListTemplate@PAVZone@DjVuTXT@@PAV12@@@QAEXABQAVZone@DjVuTXT@@@Z   @1886
   ?append@?$GListTemplate@VGRect@@V1@@@QAEXABVGRect@@@Z   @1887
   ?append@?$GListTemplate@VZone@DjVuTXT@@V12@@@QAEXABVZone@DjVuTXT@@@Z   @1888
   ?append_child@Zone@DjVuTXT@@QAEPAV12@XZ   @1889
   ?area@GRect@@QBEHXZ   @1890
   ?cleartext@Zone@DjVuTXT@@AAEXXZ   @1891
   ?copy@?$NormTraits@U?$ListNode@PAVZone@DjVuTXT@@@@@@SAXPAXPBXHH@Z   @1892
   ?copy@?$NormTraits@U?$ListNode@VGRect@@@@@@SAXPAXPBXHH@Z   @1893
   ?copy@?$NormTraits@U?$ListNode@VZone@DjVuTXT@@@@@@SAXPAXPBXHH@Z   @1894
   ?copy@DjVuTXT@@QBE?AV?$GP@VDjVuTXT@@@@XZ   @1895
   ?copy@DjVuText@@QBE?AV?$GP@VDjVuText@@@@XZ   @1896
   ?decode@DjVuTXT@@QAEXABV?$GP@VByteStream@@@@@Z   @1897
   ?decode@DjVuText@@QAEXABV?$GP@VByteStream@@@@@Z   @1898
   ?decode@Zone@DjVuTXT@@AAEXABV?$GP@VByteStream@@@@HPBV12@1@Z   @1899
   ?empty@?$GListTemplate@PAVZone@DjVuTXT@@PAV12@@@QAEXXZ   @1900
   ?empty@?$GListTemplate@VZone@DjVuTXT@@V12@@@QAEXXZ   @1901
   ?encode@DjVuTXT@@QBEXABV?$GP@VByteStream@@@@@Z   @1902
   ?encode@DjVuText@@QAEXABV?$GP@VByteStream@@@@@Z   @1903
   ?encode@Zone@DjVuTXT@@ABEXABV?$GP@VByteStream@@@@PBV12@1@Z   @1904
   ?end_of_column@DjVuTXT@@2DB   @1905
   ?end_of_line@DjVuTXT@@2DB   @1906
   ?end_of_paragraph@DjVuTXT@@2DB   @1907
   ?end_of_region@DjVuTXT@@2DB   @1908
   ?find_text_in_rect@DjVuTXT@@QBE?AV?$GList@PAVZone@DjVuTXT@@@@VGRect@@AAVGUTF8String@@@Z   @1909
   ?find_text_with_rect@DjVuTXT@@QBE?AV?$GList@VGRect@@@@ABVGRect@@AAVGUTF8String@@H@Z   @1910
   ?find_zones@Zone@DjVuTXT@@QBEXAAV?$GList@PAVZone@DjVuTXT@@@@HH@Z   @1911
   ?fini@?$NormTraits@U?$ListNode@PAVZone@DjVuTXT@@@@@@SAXPAXH@Z   @1912
   ?fini@?$NormTraits@U?$ListNode@VGRect@@@@@@SAXPAXH@Z   @1913
   ?fini@?$NormTraits@U?$ListNode@VZone@DjVuTXT@@@@@@SAXPAXH@Z   @1914
   ?firstpos@?$GListTemplate@PAVZone@DjVuTXT@@PAV12@@@QBE?AVGPosition@@XZ   @1915
   ?get_memory_usage@DjVuTXT@@QBEIXZ   @1916
   ?get_smallest@Zone@DjVuTXT@@QBEXAAV?$GList@VGRect@@@@@Z   @1917
   ?get_smallest@Zone@DjVuTXT@@QBEXAAV?$GList@VGRect@@@@H@Z   @1918
   ?get_text_with_rect@Zone@DjVuTXT@@QBEXABVGRect@@AAH1@Z   @1919
   ?get_xmlText@DjVuTXT@@QBE?AVGUTF8String@@H@Z   @1920
   ?get_xmlText@DjVuText@@QBE?AVGUTF8String@@H@Z   @1921
   ?get_zones@DjVuTXT@@QBEXHPBVZone@1@AAV?$GList@PAVZone@DjVuTXT@@@@@Z   @1922
   ?has_valid_zones@DjVuTXT@@QBEHXZ   @1923
   ?init@?$NormTraits@U?$ListNode@PAVZone@DjVuTXT@@@@@@SAXPAXH@Z   @1924
   ?init@?$NormTraits@U?$ListNode@VGRect@@@@@@SAXPAXH@Z   @1925
   ?init@?$NormTraits@U?$ListNode@VZone@DjVuTXT@@@@@@SAXPAXH@Z   @1926
   ?isempty@?$GListTemplate@PAVZone@DjVuTXT@@PAV12@@@QBE_NXZ   @1927
   ?lastpos@?$GListTemplate@PAVZone@DjVuTXT@@PAV12@@@QBE?AVGPosition@@XZ   @1928
   ?lastpos@?$GListTemplate@VZone@DjVuTXT@@V12@@@QBE?AVGPosition@@XZ   @1929
   ?lea@?$NormTraits@U?$ListNode@PAVZone@DjVuTXT@@@@@@SAPAXPAXH@Z   @1930
   ?lea@?$NormTraits@U?$ListNode@VGRect@@@@@@SAPAXPAXH@Z   @1931
   ?lea@?$NormTraits@U?$ListNode@VZone@DjVuTXT@@@@@@SAPAXPAXH@Z   @1932
   ?memuse@Zone@DjVuTXT@@ABEIXZ   @1933
   ?newnode@?$GListImpl@PAVZone@DjVuTXT@@@@KAPAUNode@@ABQAVZone@DjVuTXT@@@Z   @1934
   ?newnode@?$GListImpl@VGRect@@@@KAPAUNode@@ABVGRect@@@Z   @1935
   ?newnode@?$GListImpl@VZone@DjVuTXT@@@@KAPAUNode@@ABVZone@DjVuTXT@@@Z   @1936
   ?normalize_text@DjVuTXT@@QAEXXZ   @1937
   ?normtext@Zone@DjVuTXT@@AAEXPBDAAVGUTF8String@@@Z   @1938
   ?search@?$GListImpl@PAVZone@DjVuTXT@@@@IBEHABQAVZone@DjVuTXT@@AAVGPosition@@@Z   @1939
   ?search@?$GListTemplate@PAVZone@DjVuTXT@@PAV12@@@QBEHABQAVZone@DjVuTXT@@AAVGPosition@@@Z   @1940
   ?size@?$GListTemplate@PAVZone@DjVuTXT@@PAV12@@@QBEHXZ   @1941
   ?size@?$GListTemplate@VZone@DjVuTXT@@V12@@@QBEHXZ   @1942
   ?theTraits@?1??traits@?$NormTraits@U?$ListNode@PAVZone@DjVuTXT@@@@@@SAABUTraits@@XZ@4U3@B   @1943
   ?theTraits@?1??traits@?$NormTraits@U?$ListNode@VGRect@@@@@@SAABUTraits@@XZ@4U3@B   @1944
   ?theTraits@?1??traits@?$NormTraits@U?$ListNode@VZone@DjVuTXT@@@@@@SAABUTraits@@XZ@4U3@B   @1945
   ?traits@?$NormTraits@U?$ListNode@PAVZone@DjVuTXT@@@@@@SAABUTraits@@XZ   @1946
   ?traits@?$NormTraits@U?$ListNode@VGRect@@@@@@SAABUTraits@@XZ   @1947
   ?traits@?$NormTraits@U?$ListNode@VZone@DjVuTXT@@@@@@SAABUTraits@@XZ   @1948
   ?version@Zone@DjVuTXT@@0HB   @1949
   ?writeText@DjVuTXT@@QBEXAAVByteStream@@H@Z   @1950
   ?writeText@DjVuText@@QBEXAAVByteStream@@H@Z   @1951
   ??0?$GArray@V?$GList@PBX@@@@QAE@HH@Z   @1952
   ??0?$GArrayTemplate@V?$GList@PBX@@@@QAE@ABUTraits@@HH@Z   @1953
   ??0?$GList@PAX@@QAE@XZ   @1954
   ??0?$GList@PBX@@QAE@ABV0@@Z   @1955
   ??0?$GList@PBX@@QAE@XZ   @1956
   ??0?$GListImpl@PAX@@IAE@XZ   @1957
   ??0?$GListImpl@PBX@@IAE@XZ   @1958
   ??0?$GListImpl@PBX@@QAE@ABV0@@Z   @1959
   ??0?$GListTemplate@PAXPAX@@QAE@XZ   @1960
   ??0?$GListTemplate@PBXPBX@@QAE@ABV0@@Z   @1961
   ??0?$GListTemplate@PBXPBX@@QAE@XZ   @1962
   ??0?$GListTemplate@V?$GP@VDjVuPort@@@@VGPBase@@@@QAE@ABV0@@Z   @1963
   ??0?$GListTemplate@V?$GP@VDjVuPort@@@@VGPBase@@@@QAE@XZ   @1964
   ??0?$GMap@PBXPAX@@QAE@XZ   @1965
   ??0?$GMap@VGUTF8String@@PBX@@QAE@XZ   @1966
   ??0?$GMapImpl@PBXPAX@@IAE@XZ   @1967
   ??0?$GMapImpl@VGUTF8String@@PBX@@IAE@XZ   @1968
   ??0?$GMapTemplate@PBXPAXPAX@@QAE@XZ   @1969
   ??0?$GMapTemplate@VGUTF8String@@PBXPBX@@QAE@XZ   @1970
   ??0?$GP@VDataPool@@@@QAE@PAVDataPool@@@Z   @1971
   ??0?$GP@VDataPool@@@@QAE@XZ   @1972
   ??0?$GP@VDjVuFile@@@@QAE@PAVDjVuFile@@@Z   @1973
   ??0?$GP@VDjVuPort@@@@QAE@ABV0@@Z   @1974
   ??0?$GP@VDjVuPort@@@@QAE@XZ   @1975
   ??0?$GPList@VDjVuPort@@@@QAE@ABV0@@Z   @1976
   ??0?$GPList@VDjVuPort@@@@QAE@XZ   @1977
   ??0?$GSetImpl@PBX@@IAE@ABUTraits@@@Z   @1978
   ??0?$MapNode@VGUTF8String@@PBX@@QAE@ABU0@@Z   @1979
   ??0?$MapNode@VGUTF8String@@PBX@@QAE@XZ   @1980
   ??0DjVuPort@@QAE@ABV0@@Z   @1981
   ??0DjVuPort@@QAE@XZ   @1982
   ??0DjVuPortCorpse@DjVuPort@@QAE@PAV1@@Z   @1983
   ??0DjVuPortcaster@@QAE@XZ   @1984
   ??1?$GArray@V?$GList@PBX@@@@QAE@XZ   @1985
   ??1?$GArrayTemplate@V?$GList@PBX@@@@QAE@XZ   @1986
   ??1?$GList@PAX@@QAE@XZ   @1987
   ??1?$GList@PBX@@QAE@XZ   @1988
   ??1?$GListImpl@PAX@@QAE@XZ   @1989
   ??1?$GListImpl@PBX@@QAE@XZ   @1990
   ??1?$GListTemplate@PAXPAX@@QAE@XZ   @1991
   ??1?$GListTemplate@PBXPBX@@QAE@XZ   @1992
   ??1?$GListTemplate@V?$GP@VDjVuPort@@@@VGPBase@@@@QAE@XZ   @1993
   ??1?$GMap@PBXPAX@@QAE@XZ   @1994
   ??1?$GMap@VGUTF8String@@PBX@@QAE@XZ   @1995
   ??1?$GMapImpl@PBXPAX@@QAE@XZ   @1996
   ??1?$GMapImpl@VGUTF8String@@PBX@@QAE@XZ   @1997
   ??1?$GMapTemplate@PBXPAXPAX@@QAE@XZ   @1998
   ??1?$GMapTemplate@VGUTF8String@@PBXPBX@@QAE@XZ   @1999
   ??1?$GP@VDjVuPort@@@@QAE@XZ   @2000
   ??1?$GPList@VDjVuPort@@@@QAE@XZ   @2001
   ??1?$GSetImpl@PBX@@QAE@XZ   @2002
   ??1?$MapNode@VGUTF8String@@PBX@@QAE@XZ   @2003
   ??1DjVuPort@@UAE@XZ   @2004
   ??1DjVuPortcaster@@UAE@XZ   @2005
   ??2DjVuPort@@SAPAXI@Z   @2006
   ??3DjVuPort@@SAXPAX@Z   @2007
   ??4?$GP@VDataPool@@@@QAEAAV0@ABV0@@Z   @2008
   ??4?$GP@VDjVuPort@@@@QAEAAV0@PAVDjVuPort@@@Z   @2009
   ??4DjVuPort@@QAEAAV0@ABV0@@Z   @2010
   ??A?$GArrayTemplate@V?$GList@PBX@@@@QAEAAV?$GList@PBX@@H@Z   @2011
   ??A?$GListTemplate@PAXPAX@@QAEAAPAXVGPosition@@@Z   @2012
   ??A?$GListTemplate@PBXPBX@@QAEAAPBXVGPosition@@@Z   @2013
   ??A?$GListTemplate@V?$GP@VDjVuPort@@@@VGPBase@@@@QAEAAV?$GP@VDjVuPort@@@@VGPosition@@@Z   @2014
   ??A?$GMapTemplate@PBXPAXPAX@@QAEAAPAXABQBX@Z   @2015
   ??A?$GMapTemplate@PBXPAXPAX@@QAEAAPAXABVGPosition@@@Z   @2016
   ??A?$GMapTemplate@VGURL@@V?$GP@VDataPool@@@@VGPBase@@@@QAEAAV?$GP@VDataPool@@@@ABVGPosition@@@Z   @2017
   ??A?$GMapTemplate@VGURL@@V?$GP@VDataPool@@@@VGPBase@@@@QAEAAV?$GP@VDataPool@@@@ABVGURL@@@Z   @2018
   ??A?$GMapTemplate@VGUTF8String@@PBXPBX@@QAEAAPBXABVGPosition@@@Z   @2019
   ??A?$GMapTemplate@VGUTF8String@@PBXPBX@@QAEAAPBXABVGUTF8String@@@Z   @2020
   ??B?$GListTemplate@PAXPAX@@QBE?AVGPosition@@XZ   @2021
   ??B?$GListTemplate@PBXPBX@@QBE?AVGPosition@@XZ   @2022
   ??B?$GListTemplate@V?$GP@VDjVuPort@@@@VGPBase@@@@QBE?AVGPosition@@XZ   @2023
   ??B?$GMapTemplate@PBXPAXPAX@@QBE?AVGPosition@@XZ   @2024
   ??B?$GMapTemplate@VGUTF8String@@PBXPBX@@QBE?AVGPosition@@XZ   @2025
   ??B?$GP@VDataPool@@@@QBEPAVDataPool@@XZ   @2026
   ??B?$GP@VDjVuFile@@@@QBEPAVDjVuFile@@XZ   @2027
   ??B?$GP@VDjVuPort@@@@QBEPAVDjVuPort@@XZ   @2028
   ??C?$GP@VDjVuPort@@@@QBEPAVDjVuPort@@XZ   @2029
   ?add_alias@DjVuPortcaster@@QAEXPBVDjVuPort@@ABVGUTF8String@@@Z   @2030
   ?add_data@DjVuMemoryPort@@QAEXABVGURL@@ABV?$GP@VDataPool@@@@@Z   @2031
   ?add_route@DjVuPortcaster@@QAEXPBVDjVuPort@@PAV2@@Z   @2032
   ?add_to_closure@DjVuPortcaster@@AAEXAAV?$GMap@PBXPAX@@PBVDjVuPort@@H@Z   @2033
   ?alias_to_port@DjVuPortcaster@@QAE?AV?$GP@VDjVuPort@@@@ABVGUTF8String@@@Z   @2034
   ?append@?$GListTemplate@PAXPAX@@QAEXABQAX@Z   @2035
   ?append@?$GListTemplate@PBXPBX@@QAEXABQBX@Z   @2036
   ?append@?$GListTemplate@V?$GP@VDjVuPort@@@@VGPBase@@@@QAEXABV?$GP@VDjVuPort@@@@@Z   @2037
   ?clear_aliases@DjVuPortcaster@@QAEXPBVDjVuPort@@@Z   @2038
   ?clear_all_aliases@DjVuPortcaster@@SAXXZ   @2039
   ?compute_closure@DjVuPortcaster@@AAEXPBVDjVuPort@@AAV?$GPList@VDjVuPort@@@@_N@Z   @2040
   ?contains@?$GListTemplate@PAXPAX@@QBE?AVGPosition@@ABQAX@Z   @2041
   ?contains@?$GMapTemplate@PBXPAXPAX@@QBE?AVGPosition@@ABQBX@Z   @2042
   ?contains@?$GMapTemplate@PBXPAXPAX@@QBE?AVGPosition@@ABQBXAAV2@@Z   @2043
   ?contains@?$GMapTemplate@VGURL@@V?$GP@VDataPool@@@@VGPBase@@@@QBE?AVGPosition@@ABVGURL@@AAV2@@Z   @2044
   ?contains@?$GMapTemplate@VGUTF8String@@PBXPBX@@QBE?AVGPosition@@ABVGUTF8String@@AAV2@@Z   @2045
   ?contains@?$GSetImpl@PBX@@QBE?AVGPosition@@ABQBX@Z   @2046
   ?contains@?$GSetImpl@VGURL@@@@QBE?AVGPosition@@ABVGURL@@@Z   @2047
   ?copy@?$NormTraits@U?$ListNode@PAX@@@@SAXPAXPBXHH@Z   @2048
   ?copy@?$NormTraits@U?$ListNode@PBX@@@@SAXPAXPBXHH@Z   @2049
   ?copy@?$NormTraits@U?$MapNode@PBXPAX@@@@SAXPAXPBXHH@Z   @2050
   ?copy@?$NormTraits@U?$MapNode@VGUTF8String@@PBX@@@@SAXPAXPBXHH@Z   @2051
   ?copy@?$NormTraits@V?$GList@PBX@@@@SAXPAXPBXHH@Z   @2052
   ?copy_routes@DjVuPortcaster@@QAEXPAVDjVuPort@@PBV2@@Z   @2053
   ?corpse_head@DjVuPort@@0PAVDjVuPortCorpse@1@A   @2054
   ?corpse_lock@DjVuPort@@0PAVGCriticalSection@@A   @2055
   ?corpse_num@DjVuPort@@0HA   @2056
   ?corpse_tail@DjVuPort@@0PAVDjVuPortCorpse@1@A   @2057
   ?del@?$GListTemplate@PAXPAX@@QAEXAAVGPosition@@@Z   @2058
   ?del@?$GMapTemplate@PBXPAXPAX@@QAEXAAVGPosition@@@Z   @2059
   ?del@?$GMapTemplate@PBXPAXPAX@@QAEXABQBX@Z   @2060
   ?del@?$GMapTemplate@VGUTF8String@@PBXPBX@@QAEXAAVGPosition@@@Z   @2061
   ?del@?$GSetImpl@PBX@@QAEXABQBX@Z   @2062
   ?del_port@DjVuPortcaster@@QAEXPBVDjVuPort@@@Z   @2063
   ?del_route@DjVuPortcaster@@QAEXPBVDjVuPort@@PAV2@@Z   @2064
   ?fini@?$NormTraits@U?$ListNode@PAX@@@@SAXPAXH@Z   @2065
   ?fini@?$NormTraits@U?$ListNode@PBX@@@@SAXPAXH@Z   @2066
   ?fini@?$NormTraits@U?$MapNode@PBXPAX@@@@SAXPAXH@Z   @2067
   ?fini@?$NormTraits@U?$MapNode@VGUTF8String@@PBX@@@@SAXPAXH@Z   @2068
   ?fini@?$NormTraits@V?$GList@PBX@@@@SAXPAXH@Z   @2069
   ?firstpos@?$GListTemplate@PAXPAX@@QBE?AVGPosition@@XZ   @2070
   ?firstpos@?$GListTemplate@PBXPBX@@QBE?AVGPosition@@XZ   @2071
   ?firstpos@?$GListTemplate@V?$GP@VDjVuPort@@@@VGPBase@@@@QBE?AVGPosition@@XZ   @2072
   ?firstpos@?$GMapTemplate@PBXPAXPAX@@QBE?AVGPosition@@XZ   @2073
   ?firstpos@?$GMapTemplate@VGUTF8String@@PBXPBX@@QBE?AVGPosition@@XZ   @2074
   ?get@?$GSetImpl@PBX@@IBEPAUHNode@@ABQBX@Z   @2075
   ?get@?$GSetImpl@VGURL@@@@IBEPAUHNode@@ABVGURL@@@Z   @2076
   ?get_or_create@?$GMapImpl@PBXPAX@@IAEPAUHNode@@ABQBX@Z   @2077
   ?get_or_create@?$GMapImpl@VGURL@@VGPBase@@@@IAEPAUHNode@@ABVGURL@@@Z   @2078
   ?get_or_create@?$GMapImpl@VGUTF8String@@PBX@@IAEPAUHNode@@ABVGUTF8String@@@Z   @2079
   ?get_portcaster@DjVuPort@@SAPAVDjVuPortcaster@@XZ   @2080
   ?get_portcaster@DjVuPortcaster@@SAPAV1@XZ   @2081
   ?id_to_file@DjVuPort@@UAE?AV?$GP@VDjVuFile@@@@PBV1@ABVGUTF8String@@@Z   @2082
   ?id_to_file@DjVuPortcaster@@UAE?AV?$GP@VDjVuFile@@@@PBVDjVuPort@@ABVGUTF8String@@@Z   @2083
   ?id_to_url@DjVuPort@@UAE?AVGURL@@PBV1@ABVGUTF8String@@@Z   @2084
   ?id_to_url@DjVuPortcaster@@UAE?AVGURL@@PBVDjVuPort@@ABVGUTF8String@@@Z   @2085
   ?init@?$NormTraits@U?$ListNode@PAX@@@@SAXPAXH@Z   @2086
   ?init@?$NormTraits@U?$ListNode@PBX@@@@SAXPAXH@Z   @2087
   ?init@?$NormTraits@U?$MapNode@PBXPAX@@@@SAXPAXH@Z   @2088
   ?init@?$NormTraits@U?$MapNode@VGUTF8String@@PBX@@@@SAXPAXH@Z   @2089
   ?init@?$NormTraits@V?$GList@PBX@@@@SAXPAXH@Z   @2090
   ?is_port_alive@DjVuPortcaster@@QAE?AV?$GP@VDjVuPort@@@@PAVDjVuPort@@@Z   @2091
   ?key@?$GMapTemplate@PBXPAXPAX@@QBEABQBXABVGPosition@@@Z   @2092
   ?key@?$GMapTemplate@VGUTF8String@@PBXPBX@@QBEABVGUTF8String@@ABVGPosition@@@Z   @2093
   ?lea@?$NormTraits@U?$ListNode@PAX@@@@SAPAXPAXH@Z   @2094
   ?lea@?$NormTraits@U?$ListNode@PBX@@@@SAPAXPAXH@Z   @2095
   ?lea@?$NormTraits@U?$MapNode@PBXPAX@@@@SAPAXPAXH@Z   @2096
   ?lea@?$NormTraits@U?$MapNode@VGUTF8String@@PBX@@@@SAPAXPAXH@Z   @2097
   ?lea@?$NormTraits@V?$GList@PBX@@@@SAPAXPAXH@Z   @2098
   ?newnode@?$GListImpl@PAX@@KAPAUNode@@ABQAX@Z   @2099
   ?newnode@?$GListImpl@PBX@@KAPAUNode@@ABQBX@Z   @2100
   ?notify_chunk_done@DjVuPort@@UAEXPBV1@ABVGUTF8String@@@Z   @2101
   ?notify_chunk_done@DjVuPortcaster@@UAEXPBVDjVuPort@@ABVGUTF8String@@@Z   @2102
   ?notify_decode_progress@DjVuPort@@UAEXPBV1@M@Z   @2103
   ?notify_decode_progress@DjVuPortcaster@@UAEXPBVDjVuPort@@M@Z   @2104
   ?notify_doc_flags_changed@DjVuPort@@UAEXPBVDjVuDocument@@JJ@Z   @2105
   ?notify_doc_flags_changed@DjVuPortcaster@@UAEXPBVDjVuDocument@@JJ@Z   @2106
   ?notify_error@DjVuPort@@UAE_NPBV1@ABVGUTF8String@@@Z   @2107
   ?notify_error@DjVuPortcaster@@UAE_NPBVDjVuPort@@ABVGUTF8String@@@Z   @2108
   ?notify_error@DjVuSimplePort@@UAE_NPBVDjVuPort@@ABVGUTF8String@@@Z   @2109
   ?notify_file_flags_changed@DjVuPort@@UAEXPBVDjVuFile@@JJ@Z   @2110
   ?notify_file_flags_changed@DjVuPortcaster@@UAEXPBVDjVuFile@@JJ@Z   @2111
   ?notify_redisplay@DjVuPort@@UAEXPBVDjVuImage@@@Z   @2112
   ?notify_redisplay@DjVuPortcaster@@UAEXPBVDjVuImage@@@Z   @2113
   ?notify_relayout@DjVuPort@@UAEXPBVDjVuImage@@@Z   @2114
   ?notify_relayout@DjVuPortcaster@@UAEXPBVDjVuImage@@@Z   @2115
   ?notify_status@DjVuPort@@UAE_NPBV1@ABVGUTF8String@@@Z   @2116
   ?notify_status@DjVuPortcaster@@UAE_NPBVDjVuPort@@ABVGUTF8String@@@Z   @2117
   ?notify_status@DjVuSimplePort@@UAE_NPBVDjVuPort@@ABVGUTF8String@@@Z   @2118
   ?prefix_to_ports@DjVuPortcaster@@QAE?AV?$GPList@VDjVuPort@@@@ABVGUTF8String@@@Z   @2119
   ?request_data@DjVuMemoryPort@@UAE?AV?$GP@VDataPool@@@@PBVDjVuPort@@ABVGURL@@@Z   @2120
   ?request_data@DjVuPort@@UAE?AV?$GP@VDataPool@@@@PBV1@ABVGURL@@@Z   @2121
   ?request_data@DjVuPortcaster@@UAE?AV?$GP@VDataPool@@@@PBVDjVuPort@@ABVGURL@@@Z   @2122
   ?request_data@DjVuSimplePort@@UAE?AV?$GP@VDataPool@@@@PBVDjVuPort@@ABVGURL@@@Z   @2123
   ?search@?$GListImpl@PAX@@IBEHABQAXAAVGPosition@@@Z   @2124
   ?search@?$GListTemplate@PAXPAX@@QBEHABQAXAAVGPosition@@@Z   @2125
   ?size@?$GListTemplate@PAXPAX@@QBEHXZ   @2126
   ?theTraits@?1??traits@?$NormTraits@U?$ListNode@PAX@@@@SAABUTraits@@XZ@4U3@B   @2127
   ?theTraits@?1??traits@?$NormTraits@U?$ListNode@PBX@@@@SAABUTraits@@XZ@4U3@B   @2128
   ?theTraits@?1??traits@?$NormTraits@U?$MapNode@PBXPAX@@@@SAABUTraits@@XZ@4U3@B   @2129
   ?theTraits@?1??traits@?$NormTraits@U?$MapNode@VGUTF8String@@PBX@@@@SAABUTraits@@XZ@4U3@B   @2130
   ?theTraits@?1??traits@?$NormTraits@V?$GList@PBX@@@@SAABUTraits@@XZ@4U3@B   @2131
   ?traits@?$NormTraits@U?$ListNode@PAX@@@@SAABUTraits@@XZ   @2132
   ?traits@?$NormTraits@U?$ListNode@PBX@@@@SAABUTraits@@XZ   @2133
   ?traits@?$NormTraits@U?$MapNode@PBXPAX@@@@SAABUTraits@@XZ   @2134
   ?traits@?$NormTraits@U?$MapNode@VGUTF8String@@PBX@@@@SAABUTraits@@XZ   @2135
   ?traits@?$NormTraits@V?$GList@PBX@@@@SAABUTraits@@XZ   @2136
   ??0?$GArrayTemplate@F@@QAE@ABUTraits@@@Z   @2137
   ??0?$GArrayTemplate@UGPixel@@@@QAE@ABUTraits@@HH@Z   @2138
   ??0?$GArrayTemplate@UPColor@DjVuPalette@@@@QAE@ABUTraits@@@Z   @2139
   ??0?$GArrayTemplate@UPData@@@@QAE@ABUTraits@@@Z   @2140
   ??0?$GList@UPBox@@@@QAE@XZ   @2141
   ??0?$GListImpl@UPBox@@@@IAE@XZ   @2142
   ??0?$GListTemplate@UPBox@@U1@@@QAE@XZ   @2143
   ??0?$GMap@HH@@QAE@XZ   @2144
   ??0?$GMapImpl@HH@@IAE@XZ   @2145
   ??0?$GMapTemplate@HHH@@QAE@XZ   @2146
   ??0?$GSetImpl@H@@IAE@ABUTraits@@@Z   @2147
   ??0?$GTArray@F@@QAE@XZ   @2148
   ??0?$GTArray@UGPixel@@@@QAE@HH@Z   @2149
   ??0?$GTArray@UPColor@DjVuPalette@@@@QAE@XZ   @2150
   ??0?$GTArray@UPData@@@@QAE@XZ   @2151
   ??0DjVuPalette@@IAE@XZ   @2152
   ??0DjVuPalette@@QAE@ABV0@@Z   @2153
   ??1?$GArrayTemplate@F@@QAE@XZ   @2154
   ??1?$GArrayTemplate@UGPixel@@@@QAE@XZ   @2155
   ??1?$GArrayTemplate@UPColor@DjVuPalette@@@@QAE@XZ   @2156
   ??1?$GArrayTemplate@UPData@@@@QAE@XZ   @2157
   ??1?$GList@UPBox@@@@QAE@XZ   @2158
   ??1?$GListImpl@UPBox@@@@QAE@XZ   @2159
   ??1?$GListTemplate@UPBox@@U1@@@QAE@XZ   @2160
   ??1?$GMap@HH@@QAE@XZ   @2161
   ??1?$GMapImpl@HH@@QAE@XZ   @2162
   ??1?$GMapTemplate@HHH@@QAE@XZ   @2163
   ??1?$GSetImpl@H@@QAE@XZ   @2164
   ??1?$GTArray@F@@QAE@XZ   @2165
   ??1?$GTArray@UGPixel@@@@QAE@XZ   @2166
   ??1?$GTArray@UPColor@DjVuPalette@@@@QAE@XZ   @2167
   ??1?$GTArray@UPData@@@@QAE@XZ   @2168
   ??1DjVuPalette@@UAE@XZ   @2169
   ??4?$GTArray@F@@QAEAAV0@ABV0@@Z   @2170
   ??4?$GTArray@UPColor@DjVuPalette@@@@QAEAAV0@ABV0@@Z   @2171
   ??4DjVuPalette@@QAEAAV0@ABV0@@Z   @2172
   ??A?$GArrayTemplate@F@@QBEABFH@Z   @2173
   ??A?$GArrayTemplate@UPColor@DjVuPalette@@@@QAEAAUPColor@DjVuPalette@@H@Z   @2174
   ??A?$GArrayTemplate@UPData@@@@QAEAAUPData@@H@Z   @2175
   ??A?$GListTemplate@UPBox@@U1@@@QAEAAUPBox@@VGPosition@@@Z   @2176
   ??A?$GMapTemplate@HHH@@QAEAAHABH@Z   @2177
   ??A?$GMapTemplate@HHH@@QAEAAHABVGPosition@@@Z   @2178
   ??B?$GArrayTemplate@UGPixel@@@@QAEPAUGPixel@@XZ   @2179
   ??B?$GArrayTemplate@UPColor@DjVuPalette@@@@QAEPAUPColor@DjVuPalette@@XZ   @2180
   ??B?$GArrayTemplate@UPData@@@@QAEPAUPData@@XZ   @2181
   ??B?$GListTemplate@UPBox@@U1@@@QBE?AVGPosition@@XZ   @2182
   ??B?$GMapTemplate@HHH@@QBE?AVGPosition@@XZ   @2183
   ?allocate_hist@DjVuPalette@@AAEXXZ   @2184
   ?allocate_pmap@DjVuPalette@@AAEXXZ   @2185
   ?append@?$GListTemplate@UPBox@@U1@@@QAEXABUPBox@@@Z   @2186
   ?bcomp@DjVuPalette@@CAHPBX0@Z   @2187
   ?color_correct@DjVuPalette@@QAEXN@Z   @2188
   ?color_to_index@DjVuPalette@@QAEHABUGPixel@@@Z   @2189
   ?color_to_index@DjVuPalette@@QAEHPBE@Z   @2190
   ?color_to_index_slow@DjVuPalette@@AAEHPBE@Z   @2191
   ?compute_palette@DjVuPalette@@QAEHHH@Z   @2192
   ?compute_palette_and_quantize@DjVuPalette@@QAEHAAVGPixmap@@HH@Z   @2193
   ?compute_pixmap_palette@DjVuPalette@@QAEHABVGPixmap@@HH@Z   @2194
   ?contains@?$GMapTemplate@HHH@@QBE?AVGPosition@@ABH@Z   @2195
   ?contains@?$GSetImpl@H@@QBE?AVGPosition@@ABH@Z   @2196
   ?copy@?$NormTraits@U?$ListNode@UPBox@@@@@@SAXPAXPBXHH@Z   @2197
   ?copy@?$NormTraits@U?$MapNode@HH@@@@SAXPAXPBXHH@Z   @2198
   ?copy@?$TrivTraits@$01@@SAXPAXPBXHH@Z   @2199
   ?copy@?$TrivTraits@$02@@SAXPAXPBXHH@Z   @2200
   ?decode@DjVuPalette@@QAEXV?$GP@VByteStream@@@@@Z   @2201
   ?decode_rgb_entries@DjVuPalette@@QAEXAAVByteStream@@H@Z   @2202
   ?empty@?$GArrayTemplate@F@@QAEXXZ   @2203
   ?empty@?$GArrayTemplate@UPColor@DjVuPalette@@@@QAEXXZ   @2204
   ?encode@DjVuPalette@@QBEXV?$GP@VByteStream@@@@@Z   @2205
   ?encode_rgb_entries@DjVuPalette@@QBEXAAVByteStream@@@Z   @2206
   ?fini@?$NormTraits@U?$ListNode@UPBox@@@@@@SAXPAXH@Z   @2207
   ?fini@?$NormTraits@U?$MapNode@HH@@@@SAXPAXH@Z   @2208
   ?fini@?$TrivTraits@$01@@SAXPAXH@Z   @2209
   ?fini@?$TrivTraits@$02@@SAXPAXH@Z   @2210
   ?firstpos@?$GListTemplate@UPBox@@U1@@@QBE?AVGPosition@@XZ   @2211
   ?firstpos@?$GMapTemplate@HHH@@QBE?AVGPosition@@XZ   @2212
   ?fmin@@YAMMM@Z   @2213
   ?gcomp@DjVuPalette@@CAHPBX0@Z   @2214
   ?get@?$GSetImpl@H@@IBEPAUHNode@@ABH@Z   @2215
   ?get_or_create@?$GMapImpl@HH@@IAEPAUHNode@@ABH@Z   @2216
   ?histogram_add@DjVuPalette@@QAEXABUGPixel@@H@Z   @2217
   ?histogram_add@DjVuPalette@@QAEXPBEH@Z   @2218
   ?histogram_clear@DjVuPalette@@QAEXXZ   @2219
   ?init@?$NormTraits@U?$ListNode@UPBox@@@@@@SAXPAXH@Z   @2220
   ?init@?$NormTraits@U?$MapNode@HH@@@@SAXPAXH@Z   @2221
   ?init@?$TrivTraits@$01@@SAXPAXH@Z   @2222
   ?init@?$TrivTraits@$02@@SAXPAXH@Z   @2223
   ?insert_before@?$GListTemplate@UPBox@@U1@@@QAEXVGPosition@@AAV1@AAV2@@Z   @2224
   ?insert_before@?$GListTemplate@UPBox@@U1@@@QAEXVGPosition@@ABUPBox@@@Z   @2225
   ?key@?$GMapTemplate@HHH@@QBEABHABVGPosition@@@Z   @2226
   ?lcomp@DjVuPalette@@CAHPBX0@Z   @2227
   ?lea@?$NormTraits@U?$ListNode@UPBox@@@@@@SAPAXPAXH@Z   @2228
   ?lea@?$NormTraits@U?$MapNode@HH@@@@SAPAXPAXH@Z   @2229
   ?lea@?$TrivTraits@$01@@SAPAXPAXH@Z   @2230
   ?lea@?$TrivTraits@$02@@SAPAXPAXH@Z   @2231
   ?newnode@?$GListImpl@UPBox@@@@KAPAUNode@@ABUPBox@@@Z   @2232
   ?quantize@DjVuPalette@@QAEXAAVGPixmap@@@Z   @2233
   ?rcomp@DjVuPalette@@CAHPBX0@Z   @2234
   ?resize@?$GArrayTemplate@F@@QAEXHH@Z   @2235
   ?resize@?$GArrayTemplate@UPColor@DjVuPalette@@@@QAEXHH@Z   @2236
   ?size@?$GArrayTemplate@F@@QBEHXZ   @2237
   ?size@?$GArrayTemplate@UPColor@DjVuPalette@@@@QBEHXZ   @2238
   ?size@?$GListTemplate@UPBox@@U1@@@QBEHXZ   @2239
   ?size@?$GMapTemplate@HHH@@QBEHXZ   @2240
   ?theTraits@?1??traits@?$NormTraits@U?$ListNode@UPBox@@@@@@SAABUTraits@@XZ@4U3@B   @2241
   ?theTraits@?1??traits@?$NormTraits@U?$MapNode@HH@@@@SAABUTraits@@XZ@4U3@B   @2242
   ?theTraits@?1??traits@?$TrivTraits@$01@@SAABUTraits@@XZ@4U3@B   @2243
   ?theTraits@?1??traits@?$TrivTraits@$02@@SAABUTraits@@XZ@4U3@B   @2244
   ?touch@?$GArrayTemplate@UPData@@@@QAEXH@Z   @2245
   ?traits@?$NormTraits@U?$ListNode@UPBox@@@@@@SAABUTraits@@XZ   @2246
   ?traits@?$NormTraits@U?$MapNode@HH@@@@SAABUTraits@@XZ   @2247
   ?traits@?$TrivTraits@$01@@SAABUTraits@@XZ   @2248
   ?traits@?$TrivTraits@$02@@SAABUTraits@@XZ   @2249
   ?umax@@YAEEE@Z   @2250
   ?umin@@YAEEE@Z   @2251
   ??0?$GArray@VGUTF8String@@@@QAE@XZ   @2252
   ??0?$GArrayTemplate@VGUTF8String@@@@QAE@ABUTraits@@@Z   @2253
   ??0?$GList@VGUTF8String@@@@QAE@XZ   @2254
   ??0?$GListImpl@VGUTF8String@@@@IAE@XZ   @2255
   ??0?$GListTemplate@VGUTF8String@@V1@@@QAE@XZ   @2256
   ??0?$GMap@VGURL@@H@@QAE@XZ   @2257
   ??0?$GMap@VGUTF8String@@H@@QAE@XZ   @2258
   ??0?$GMapImpl@VGURL@@H@@IAE@XZ   @2259
   ??0?$GMapImpl@VGUTF8String@@H@@IAE@XZ   @2260
   ??0?$GMapTemplate@VGURL@@HH@@QAE@XZ   @2261
   ??0?$GMapTemplate@VGUTF8String@@HH@@QAE@XZ   @2262
   ??0?$GSetImpl@VGURL@@@@IAE@ABUTraits@@@Z   @2263
   ??0?$ListNode@VGUTF8String@@@@QAE@ABU0@@Z   @2264
   ??0?$ListNode@VGUTF8String@@@@QAE@XZ   @2265
   ??0?$MapNode@VGURL@@H@@QAE@ABU0@@Z   @2266
   ??0?$MapNode@VGURL@@H@@QAE@XZ   @2267
   ??0?$MapNode@VGUTF8String@@H@@QAE@ABU0@@Z   @2268
   ??0?$MapNode@VGUTF8String@@H@@QAE@XZ   @2269
   ??0?$SetNode@VGURL@@@@QAE@ABU0@@Z   @2270
   ??0?$SetNode@VGURL@@@@QAE@XZ   @2271
   ??0DjVuNavDir@@IAE@AAVByteStream@@ABVGURL@@@Z   @2272
   ??0DjVuNavDir@@IAE@ABVGURL@@@Z   @2273
   ??1?$GArray@VGUTF8String@@@@QAE@XZ   @2274
   ??1?$GArrayTemplate@VGUTF8String@@@@QAE@XZ   @2275
   ??1?$GMap@VGURL@@H@@QAE@XZ   @2276
   ??1?$GMap@VGUTF8String@@H@@QAE@XZ   @2277
   ??1?$GMapImpl@VGURL@@H@@QAE@XZ   @2278
   ??1?$GMapImpl@VGUTF8String@@H@@QAE@XZ   @2279
   ??1?$GMapTemplate@VGURL@@HH@@QAE@XZ   @2280
   ??1?$GMapTemplate@VGUTF8String@@HH@@QAE@XZ   @2281
   ??1?$GSetImpl@VGURL@@@@QAE@XZ   @2282
   ??1?$ListNode@VGUTF8String@@@@QAE@XZ   @2283
   ??1?$MapNode@VGURL@@H@@QAE@XZ   @2284
   ??1?$MapNode@VGUTF8String@@H@@QAE@XZ   @2285
   ??1?$SetNode@VGURL@@@@QAE@XZ   @2286
   ??1DjVuNavDir@@UAE@XZ   @2287
   ??A?$GArrayTemplate@VGUTF8String@@@@QAEAAVGUTF8String@@H@Z   @2288
   ??A?$GArrayTemplate@VGUTF8String@@@@QBEABVGUTF8String@@H@Z   @2289
   ??A?$GListTemplate@VGUTF8String@@V1@@@QAEAAVGUTF8String@@VGPosition@@@Z   @2290
   ??A?$GMapTemplate@VGURL@@HH@@QAEAAHABVGURL@@@Z   @2291
   ??A?$GMapTemplate@VGURL@@HH@@QBEABHABVGURL@@@Z   @2292
   ??A?$GMapTemplate@VGUTF8String@@HH@@QAEAAHABVGUTF8String@@@Z   @2293
   ??A?$GMapTemplate@VGUTF8String@@HH@@QBEABHABVGUTF8String@@@Z   @2294
   ??B?$GListTemplate@VGUTF8String@@V1@@@QBE?AVGPosition@@XZ   @2295
   ?append@?$GListTemplate@VGUTF8String@@V1@@@QAEXABVGUTF8String@@@Z   @2296
   ?contains@?$GMapTemplate@VGURL@@HH@@QBE?AVGPosition@@ABVGURL@@@Z   @2297
   ?contains@?$GMapTemplate@VGUTF8String@@HH@@QBE?AVGPosition@@ABVGUTF8String@@@Z   @2298
   ?copy@?$NormTraits@U?$ListNode@VGUTF8String@@@@@@SAXPAXPBXHH@Z   @2299
   ?copy@?$NormTraits@U?$MapNode@VGURL@@H@@@@SAXPAXPBXHH@Z   @2300
   ?copy@?$NormTraits@U?$MapNode@VGUTF8String@@H@@@@SAXPAXPBXHH@Z   @2301
   ?copy@?$NormTraits@VGUTF8String@@@@SAXPAXPBXHH@Z   @2302
   ?decode@DjVuNavDir@@QAEXAAVByteStream@@@Z   @2303
   ?delete_page@DjVuNavDir@@QAEXH@Z   @2304
   ?encode@DjVuNavDir@@QAEXAAVByteStream@@@Z   @2305
   ?fini@?$NormTraits@U?$ListNode@VGUTF8String@@@@@@SAXPAXH@Z   @2306
   ?fini@?$NormTraits@U?$MapNode@VGURL@@H@@@@SAXPAXH@Z   @2307
   ?fini@?$NormTraits@U?$MapNode@VGUTF8String@@H@@@@SAXPAXH@Z   @2308
   ?fini@?$NormTraits@VGUTF8String@@@@SAXPAXH@Z   @2309
   ?firstpos@?$GListTemplate@VGUTF8String@@V1@@@QBE?AVGPosition@@XZ   @2310
   ?get_or_create@?$GMapImpl@VGURL@@H@@IAEPAUHNode@@ABVGURL@@@Z   @2311
   ?get_or_create@?$GMapImpl@VGUTF8String@@H@@IAEPAUHNode@@ABVGUTF8String@@@Z   @2312
   ?get_or_throw@?$GSetImpl@VGURL@@@@IBEPAUHNode@@ABVGURL@@@Z   @2313
   ?get_or_throw@?$GSetImpl@VGUTF8String@@@@IBEPAUHNode@@ABVGUTF8String@@@Z   @2314
   ?get_pages_num@DjVuNavDir@@QBEHXZ   @2315
   ?init@?$NormTraits@U?$ListNode@VGUTF8String@@@@@@SAXPAXH@Z   @2316
   ?init@?$NormTraits@U?$MapNode@VGURL@@H@@@@SAXPAXH@Z   @2317
   ?init@?$NormTraits@U?$MapNode@VGUTF8String@@H@@@@SAXPAXH@Z   @2318
   ?init@?$NormTraits@VGUTF8String@@@@SAXPAXH@Z   @2319
   ?insert_page@DjVuNavDir@@QAEXHPBD@Z   @2320
   ?lea@?$NormTraits@U?$ListNode@VGUTF8String@@@@@@SAPAXPAXH@Z   @2321
   ?lea@?$NormTraits@U?$MapNode@VGURL@@H@@@@SAPAXPAXH@Z   @2322
   ?lea@?$NormTraits@U?$MapNode@VGUTF8String@@H@@@@SAPAXPAXH@Z   @2323
   ?lea@?$NormTraits@VGUTF8String@@@@SAPAXPAXH@Z   @2324
   ?name_to_page@DjVuNavDir@@QBEHPBD@Z   @2325
   ?newnode@?$GListImpl@VGUTF8String@@@@KAPAUNode@@ABVGUTF8String@@@Z   @2326
   ?page_to_name@DjVuNavDir@@QBE?AVGUTF8String@@H@Z   @2327
   ?page_to_url@DjVuNavDir@@QBE?AVGURL@@H@Z   @2328
   ?resize@?$GArrayTemplate@VGUTF8String@@@@QAEXH@Z   @2329
   ?size@?$GArrayTemplate@VGUTF8String@@@@QBEHXZ   @2330
   ?size@?$GListTemplate@VGUTF8String@@V1@@@QBEHXZ   @2331
   ?theTraits@?1??traits@?$NormTraits@U?$ListNode@VGUTF8String@@@@@@SAABUTraits@@XZ@4U3@B   @2332
   ?theTraits@?1??traits@?$NormTraits@U?$MapNode@VGURL@@H@@@@SAABUTraits@@XZ@4U3@B   @2333
   ?theTraits@?1??traits@?$NormTraits@U?$MapNode@VGUTF8String@@H@@@@SAABUTraits@@XZ@4U3@B   @2334
   ?theTraits@?1??traits@?$NormTraits@VGUTF8String@@@@SAABUTraits@@XZ@4U3@B   @2335
   ?traits@?$NormTraits@U?$ListNode@VGUTF8String@@@@@@SAABUTraits@@XZ   @2336
   ?traits@?$NormTraits@U?$MapNode@VGURL@@H@@@@SAABUTraits@@XZ   @2337
   ?traits@?$NormTraits@U?$MapNode@VGUTF8String@@H@@@@SAABUTraits@@XZ   @2338
   ?traits@?$NormTraits@VGUTF8String@@@@SAABUTraits@@XZ   @2339
   ?url_to_page@DjVuNavDir@@QBEHABVGURL@@@Z   @2340
   ??0?$GListTemplate@V?$GP@VByteStream@@@@VGPBase@@@@QAE@XZ   @2341
   ??0?$GP@VDjVuMessageLite@@@@QAE@XZ   @2342
   ??0?$GPList@VByteStream@@@@QAE@XZ   @2343
   ??0DjVuMessageLite@@IAE@XZ   @2344
   ??1?$GListTemplate@V?$GP@VByteStream@@@@VGPBase@@@@QAE@XZ   @2345
   ??1?$GP@VDjVuMessageLite@@@@QAE@XZ   @2346
   ??1?$GPList@VByteStream@@@@QAE@XZ   @2347
   ??1DjVuMessageLite@@UAE@XZ   @2348
   ??4?$GP@VDjVuMessageLite@@@@QAEAAV0@PAVDjVuMessageLite@@@Z   @2349
   ??7?$GP@VDjVuMessageLite@@@@QBEHXZ   @2350
   ??A?$GListTemplate@V?$GP@VByteStream@@@@VGPBase@@@@QAEAAV?$GP@VByteStream@@@@VGPosition@@@Z   @2351
   ??A?$GMapTemplate@VGUTF8String@@V?$GP@Vlt_XMLTags@@@@V2@@@QBEABV?$GP@Vlt_XMLTags@@@@ABVGPosition@@@Z   @2352
   ??B?$GListTemplate@V?$GP@VByteStream@@@@VGPBase@@@@QBE?AVGPosition@@XZ   @2353
   ??D?$GP@VDjVuMessageLite@@@@QBEAAVDjVuMessageLite@@XZ   @2354
   ?AddByteStream@DjVuMessageLite@@IAEXABV?$GP@VByteStream@@@@@Z   @2355
   ?AddByteStreamLater@DjVuMessageLite@@SAXABV?$GP@VByteStream@@@@@Z   @2356
   ?DjVuMessageLite_LookUp@@YAXPADIPBD@Z   @2357
   ?InsertArg@DjVuMessageLite@@IBEXAAVGUTF8String@@HABV2@@Z   @2358
   ?LookUp@DjVuMessageLite@@QBE?AVGUTF8String@@ABV2@@Z   @2359
   ?LookUpID@DjVuMessageLite@@IBEXABVGUTF8String@@AAV2@1@Z   @2360
   ?LookUpSingle@DjVuMessageLite@@IBE?AVGUTF8String@@ABV2@@Z   @2361
   ?LookUpUTF8@DjVuMessageLite@@SA?AVGUTF8String@@ABV2@@Z   @2362
   ?append@?$GListTemplate@V?$GP@VByteStream@@@@VGPBase@@@@QAEXABV?$GP@VByteStream@@@@@Z   @2363
   ?create@DjVuMessageLite@@2P6AABV1@XZA   @2364
   ?create_lite@DjVuMessageLite@@SAABV1@XZ   @2365
   ?del@?$GListTemplate@V?$GP@VByteStream@@@@VGPBase@@@@QAEXAAVGPosition@@@Z   @2366
   ?firstpos@?$GListTemplate@V?$GP@VByteStream@@@@VGPBase@@@@QBE?AVGPosition@@XZ   @2367
   ?getByteStream@DjVuMessageLite@@KAAAV?$GPList@VByteStream@@@@XZ   @2368
   ?getDjVuMessageLite@DjVuMessageLite@@KAAAV?$GP@VDjVuMessageLite@@@@XZ   @2369
   ?isempty@?$GListTemplate@V?$GP@Vlt_XMLTags@@@@VGPBase@@@@QBE_NXZ   @2370
   ?isempty@?$GMapTemplate@VGUTF8String@@V?$GP@Vlt_XMLTags@@@@V2@@@QBE_NXZ   @2371
   ?perror@DjVuMessageLite@@SAXABVGUTF8String@@@Z   @2372
   ??0?$GList@V?$GMap@VGUTF8String@@V?$GP@Vlt_XMLTags@@@@@@@@QAE@XZ   @2373
   ??0?$GListImpl@V?$GMap@VGUTF8String@@V?$GP@Vlt_XMLTags@@@@@@@@IAE@XZ   @2374
   ??0?$GListTemplate@V?$GMap@VGUTF8String@@V?$GP@Vlt_XMLTags@@@@@@V1@@@QAE@XZ   @2375
   ??0?$GMap@VGUTF8String@@PAX@@QAE@XZ   @2376
   ??0?$GMap@VGUTF8String@@V?$GP@Vlt_XMLTags@@@@@@QAE@ABV0@@Z   @2377
   ??0?$GMapImpl@VGUTF8String@@PAX@@IAE@XZ   @2378
   ??0?$GMapImpl@VGUTF8String@@V?$GP@Vlt_XMLTags@@@@@@QAE@ABV0@@Z   @2379
   ??0?$GMapTemplate@VGUTF8String@@PAXPAX@@QAE@XZ   @2380
   ??0?$GMapTemplate@VGUTF8String@@V?$GP@Vlt_XMLTags@@@@V2@@@QAE@ABV0@@Z   @2381
   ??0?$ListNode@V?$GMap@VGUTF8String@@V?$GP@Vlt_XMLTags@@@@@@@@QAE@ABU0@@Z   @2382
   ??0?$ListNode@V?$GMap@VGUTF8String@@V?$GP@Vlt_XMLTags@@@@@@@@QAE@XZ   @2383
   ??0?$MapNode@VGUTF8String@@PAX@@QAE@ABU0@@Z   @2384
   ??0?$MapNode@VGUTF8String@@PAX@@QAE@XZ   @2385
   ??0DjVuMessage@@IAE@XZ   @2386
   ??0GNativeString@@QAE@ABV0@AAPAD@Z   @2387
   ??1?$GList@V?$GMap@VGUTF8String@@V?$GP@Vlt_XMLTags@@@@@@@@QAE@XZ   @2388
   ??1?$GListImpl@V?$GMap@VGUTF8String@@V?$GP@Vlt_XMLTags@@@@@@@@QAE@XZ   @2389
   ??1?$GListTemplate@V?$GMap@VGUTF8String@@V?$GP@Vlt_XMLTags@@@@@@V1@@@QAE@XZ   @2390
   ??1?$GMap@VGUTF8String@@PAX@@QAE@XZ   @2391
   ??1?$GMapImpl@VGUTF8String@@PAX@@QAE@XZ   @2392
   ??1?$GMapTemplate@VGUTF8String@@PAXPAX@@QAE@XZ   @2393
   ??1?$ListNode@V?$GMap@VGUTF8String@@V?$GP@Vlt_XMLTags@@@@@@@@QAE@XZ   @2394
   ??1?$MapNode@VGUTF8String@@PAX@@QAE@XZ   @2395
   ??1DjVuMessage@@UAE@XZ   @2396
   ??A?$GListTemplate@V?$GMap@VGUTF8String@@V?$GP@Vlt_XMLTags@@@@@@V1@@@QAEAAV?$GMap@VGUTF8String@@V?$GP@Vlt_XMLTags@@@@@@VGPosition@@@Z   @2397
   ??A?$GMapTemplate@VGUTF8String@@PAXPAX@@QAEAAPAXABVGUTF8String@@@Z   @2398
   ??B?$GListTemplate@V?$GMap@VGUTF8String@@V?$GP@Vlt_XMLTags@@@@@@V1@@@QBE?AVGPosition@@XZ   @2399
   ??B?$GMapTemplate@VGUTF8String@@V?$GP@Vlt_XMLTags@@@@V2@@@QBE?AVGPosition@@XZ   @2400
   ?GetProfilePaths@DjVuMessage@@SA?AV?$GList@VGURL@@@@XZ   @2401
   ?LookUpNative@DjVuMessage@@SA?AVGNativeString@@ABVGUTF8String@@@Z   @2402
   ?LookUpNative@DjVuMessageLite@@SA?AVGNativeString@@ABVGUTF8String@@@Z   @2403
   ?LookUpUTF8@DjVuMessage@@SA?AVGUTF8String@@ABV2@@Z   @2404
   ?T2CA@@YAPBDPBD@Z   @2405
   ?append@?$GListTemplate@V?$GMap@VGUTF8String@@V?$GP@Vlt_XMLTags@@@@@@V1@@@QAEXABV?$GMap@VGUTF8String@@V?$GP@Vlt_XMLTags@@@@@@@Z   @2406
   ?contains@?$GMapTemplate@VGUTF8String@@PAXPAX@@QBE?AVGPosition@@ABVGUTF8String@@@Z   @2407
   ?copy@?$NormTraits@U?$ListNode@V?$GMap@VGUTF8String@@V?$GP@Vlt_XMLTags@@@@@@@@@@SAXPAXPBXHH@Z   @2408
   ?copy@?$NormTraits@U?$MapNode@VGUTF8String@@PAX@@@@SAXPAXPBXHH@Z   @2409
   ?create_full@DjVuMessage@@SAABVDjVuMessageLite@@XZ   @2410
   ?empty@?$GMapTemplate@VGUTF8String@@PAXPAX@@QAEXXZ   @2411
   ?fini@?$NormTraits@U?$ListNode@V?$GMap@VGUTF8String@@V?$GP@Vlt_XMLTags@@@@@@@@@@SAXPAXH@Z   @2412
   ?fini@?$NormTraits@U?$MapNode@VGUTF8String@@PAX@@@@SAXPAXH@Z   @2413
   ?firstpos@?$GListTemplate@V?$GMap@VGUTF8String@@V?$GP@Vlt_XMLTags@@@@@@V1@@@QBE?AVGPosition@@XZ   @2414
   ?firstpos@?$GMapTemplate@VGUTF8String@@V?$GP@Vlt_XMLTags@@@@V2@@@QBE?AVGPosition@@XZ   @2415
   ?get_or_create@?$GMapImpl@VGUTF8String@@PAX@@IAEPAUHNode@@ABVGUTF8String@@@Z   @2416
   ?init@?$NormTraits@U?$ListNode@V?$GMap@VGUTF8String@@V?$GP@Vlt_XMLTags@@@@@@@@@@SAXPAXH@Z   @2417
   ?init@?$NormTraits@U?$MapNode@VGUTF8String@@PAX@@@@SAXPAXH@Z   @2418
   ?init@DjVuMessage@@IAEXXZ   @2419
   ?key@?$GMapTemplate@VGUTF8String@@V?$GP@Vlt_XMLTags@@@@V2@@@QBEABVGUTF8String@@ABVGPosition@@@Z   @2420
   ?lea@?$NormTraits@U?$ListNode@V?$GMap@VGUTF8String@@V?$GP@Vlt_XMLTags@@@@@@@@@@SAPAXPAXH@Z   @2421
   ?lea@?$NormTraits@U?$MapNode@VGUTF8String@@PAX@@@@SAPAXPAXH@Z   @2422
   ?newnode@?$GListImpl@V?$GMap@VGUTF8String@@V?$GP@Vlt_XMLTags@@@@@@@@KAPAUNode@@ABV?$GMap@VGUTF8String@@V?$GP@Vlt_XMLTags@@@@@@@Z   @2423
   ?programname@DjVuMessage@@SAAAVGUTF8String@@XZ   @2424
   ?set_programname@DjVuMessage@@SAXABVGUTF8String@@@Z   @2425
   ?theTraits@?1??traits@?$NormTraits@U?$ListNode@V?$GMap@VGUTF8String@@V?$GP@Vlt_XMLTags@@@@@@@@@@SAABUTraits@@XZ@4U3@B   @2426
   ?theTraits@?1??traits@?$NormTraits@U?$MapNode@VGUTF8String@@PAX@@@@SAABUTraits@@XZ@4U3@B   @2427
   ?traits@?$NormTraits@U?$ListNode@V?$GMap@VGUTF8String@@V?$GP@Vlt_XMLTags@@@@@@@@@@SAABUTraits@@XZ   @2428
   ?traits@?$NormTraits@U?$MapNode@VGUTF8String@@PAX@@@@SAABUTraits@@XZ   @2429
   ?use_language@DjVuMessage@@SAXXZ   @2430
   ??0?$GP@VDjVuInfo@@@@QAE@PAVDjVuInfo@@@Z   @2431
   ??0DjVuInfo@@IAE@XZ   @2432
   ?create@DjVuInfo@@SA?AV?$GP@VDjVuInfo@@@@XZ   @2433
   ?decode@DjVuInfo@@QAEXAAVByteStream@@@Z   @2434
   ?encode@DjVuInfo@@QAEXAAVByteStream@@@Z   @2435
   ?get_memory_usage@DjVuInfo@@QBEIXZ   @2436
   ?get_paramtags@DjVuInfo@@QBE?AVGUTF8String@@XZ   @2437
   ?writeParam@DjVuInfo@@QBEXAAVByteStream@@@Z   @2438
   ??0?$GP@VDjVuAnno@@@@QAE@ABV0@@Z   @2439
   ??0?$GP@VDjVuImageNotifier@@@@QAE@PAVDjVuImageNotifier@@@Z   @2440
   ??0?$GP@VDjVuPalette@@@@QAE@ABV0@@Z   @2441
   ??0?$GP@VDjVuPalette@@@@QAE@PAVDjVuPalette@@@Z   @2442
   ??0?$GP@VGBitmapScaler@@@@QAE@PAVGBitmapScaler@@@Z   @2443
   ??0?$GP@VGPixmapScaler@@@@QAE@PAVGPixmapScaler@@@Z   @2444
   ??0DjVuImage@@IAE@XZ   @2445
   ??0DjVuImageNotifier@@QAE@PAVDjVuInterface@@@Z   @2446
   ??1?$GListTemplate@V?$GP@VDjVuFile@@@@VGPBase@@@@QAE@XZ   @2447
   ??1?$GP@VDjVuImageNotifier@@@@QAE@XZ   @2448
   ??1?$GP@VGBitmapScaler@@@@QAE@XZ   @2449
   ??1?$GP@VGPixmapScaler@@@@QAE@XZ   @2450
   ??1?$GPList@VDjVuFile@@@@QAE@XZ   @2451
   ??1DjVuImage@@UAE@XZ   @2452
   ??1DjVuImageNotifier@@UAE@XZ   @2453
   ??1DjVuInterface@@UAE@XZ   @2454
   ??4?$GP@VByteStream@@@@QAEAAV0@PAVByteStream@@@Z   @2455
   ??9GURL@@QBE_NABV0@@Z   @2456
   ??A?$GArrayTemplate@UGPixel@@@@QAEAAUGPixel@@H@Z   @2457
   ??A?$GListTemplate@V?$GP@VDjVuFile@@@@VGPBase@@@@QAEAAV?$GP@VDjVuFile@@@@VGPosition@@@Z   @2458
   ??A?$GListTemplate@V?$GP@VGMapArea@@@@VGPBase@@@@QAEAAV?$GP@VGMapArea@@@@VGPosition@@@Z   @2459
   ??B?$GListTemplate@V?$GP@VDjVuFile@@@@VGPBase@@@@QBE?AVGPosition@@XZ   @2460
   ??B?$GListTemplate@V?$GP@VGMapArea@@@@VGPBase@@@@QBE?AVGPosition@@XZ   @2461
   ??B?$GP@VDjVuImageNotifier@@@@QBEPAVDjVuImageNotifier@@XZ   @2462
   ??B?$GP@VJB2Image@@@@QBEPAVJB2Image@@XZ   @2463
   ??B?$GP@VJPEGImage@@@@QBEPAVJPEGImage@@XZ   @2464
   ??C?$GP@VDjVuAnno@@@@QBEPAVDjVuAnno@@XZ   @2465
   ??C?$GP@VDjVuImageNotifier@@@@QBEPAVDjVuImageNotifier@@XZ   @2466
   ??D?$GP@VGBitmapScaler@@@@QBEAAVGBitmapScaler@@XZ   @2467
   ??D?$GP@VGPixmapScaler@@@@QBEAAVGPixmapScaler@@XZ   @2468
   ?connect@DjVuImage@@QAEXABV?$GP@VDjVuFile@@@@@Z   @2469
   ?contains@GRect@@QBEHHH@Z   @2470
   ?create@GBitmapScaler@@SA?AV?$GP@VGBitmapScaler@@@@XZ   @2471
   ?create@GPixmap@@SA?AV?$GP@VGPixmap@@@@XZ   @2472
   ?create@GPixmapScaler@@SA?AV?$GP@VGPixmapScaler@@@@HHHH@Z   @2473
   ?create@GPixmapScaler@@SA?AV?$GP@VGPixmapScaler@@@@XZ   @2474
   ?decode@DjVuImage@@QAEXAAVByteStream@@PAVDjVuInterface@@@Z   @2475
   ?firstpos@?$GListTemplate@V?$GP@VDjVuFile@@@@VGPBase@@@@QBE?AVGPosition@@XZ   @2476
   ?firstpos@?$GListTemplate@V?$GP@VGMapArea@@@@VGPBase@@@@QBE?AVGPosition@@XZ   @2477
   ?get_XML@DjVuImage@@QBE?AVGUTF8String@@ABVGURL@@H@Z   @2478
   ?get_XML@DjVuImage@@QBE?AVGUTF8String@@XZ   @2479
   ?get_anno@DjVuImage@@QBE?AV?$GP@VByteStream@@@@XZ   @2480
   ?get_bg44@DjVuImage@@ABE?AV?$GP@VIW44Image@@@@ABV?$GP@VDjVuFile@@@@@Z   @2481
   ?get_bg44@DjVuImage@@QBE?AV?$GP@VIW44Image@@@@XZ   @2482
   ?get_bg_pixmap@DjVuImage@@QBE?AV?$GP@VGPixmap@@@@ABVGRect@@0N@Z   @2483
   ?get_bg_pixmap@DjVuImage@@QBE?AV?$GP@VGPixmap@@@@ABVGRect@@HN@Z   @2484
   ?get_bgpm@DjVuImage@@ABE?AV?$GP@VGPixmap@@@@ABV?$GP@VDjVuFile@@@@@Z   @2485
   ?get_bgpm@DjVuImage@@QBE?AV?$GP@VGPixmap@@@@XZ   @2486
   ?get_bitmap@DjVuImage@@QBE?AV?$GP@VGBitmap@@@@ABVGRect@@0H@Z   @2487
   ?get_bitmap@DjVuImage@@QBE?AV?$GP@VGBitmap@@@@ABVGRect@@HH@Z   @2488
   ?get_decoded_anno@DjVuImage@@QAE?AV?$GP@VDjVuAnno@@@@XZ   @2489
   ?get_dpi@DjVuImage@@QBEHXZ   @2490
   ?get_fg_pixmap@DjVuImage@@QBE?AV?$GP@VGPixmap@@@@ABVGRect@@0N@Z   @2491
   ?get_fg_pixmap@DjVuImage@@QBE?AV?$GP@VGPixmap@@@@ABVGRect@@HN@Z   @2492
   ?get_fgbc@DjVuImage@@ABE?AV?$GP@VDjVuPalette@@@@ABV?$GP@VDjVuFile@@@@@Z   @2493
   ?get_fgbc@DjVuImage@@QBE?AV?$GP@VDjVuPalette@@@@XZ   @2494
   ?get_fgjb@DjVuImage@@ABE?AV?$GP@VJB2Image@@@@ABV?$GP@VDjVuFile@@@@@Z   @2495
   ?get_fgjb@DjVuImage@@QBE?AV?$GP@VJB2Image@@@@XZ   @2496
   ?get_fgpm@DjVuImage@@ABE?AV?$GP@VGPixmap@@@@ABV?$GP@VDjVuFile@@@@@Z   @2497
   ?get_fgpm@DjVuImage@@QBE?AV?$GP@VGPixmap@@@@XZ   @2498
   ?get_gamma@DjVuImage@@QBENXZ   @2499
   ?get_height@DjVuImage@@QBEHXZ   @2500
   ?get_info@DjVuImage@@ABE?AV?$GP@VDjVuInfo@@@@ABV?$GP@VDjVuFile@@@@@Z   @2501
   ?get_info@DjVuImage@@QBE?AV?$GP@VDjVuInfo@@@@XZ   @2502
   ?get_long_description@DjVuImage@@QBE?AVGUTF8String@@XZ   @2503
   ?get_meta@DjVuImage@@QBE?AV?$GP@VByteStream@@@@XZ   @2504
   ?get_mimetype@DjVuImage@@QBE?AVGUTF8String@@XZ   @2505
   ?get_pixmap@DjVuImage@@QBE?AV?$GP@VGPixmap@@@@ABVGRect@@0N@Z   @2506
   ?get_pixmap@DjVuImage@@QBE?AV?$GP@VGPixmap@@@@ABVGRect@@HN@Z   @2507
   ?get_real_height@DjVuImage@@QBEHXZ   @2508
   ?get_real_width@DjVuImage@@QBEHXZ   @2509
   ?get_rotate@DjVuImage@@QBEHXZ   @2510
   ?get_rounded_dpi@DjVuImage@@QBEHXZ   @2511
   ?get_short_description@DjVuImage@@QBE?AVGUTF8String@@XZ   @2512
   ?get_text@DjVuImage@@QBE?AV?$GP@VByteStream@@@@XZ   @2513
   ?get_version@DjVuImage@@QBEHXZ   @2514
   ?get_width@DjVuImage@@QBEHXZ   @2515
   ?init_rotate@DjVuImage@@AAEXABVDjVuInfo@@@Z   @2516
   ?insert_before@?$GListTemplate@HH@@QAEXVGPosition@@AAV1@AAV2@@Z   @2517
   ?is_legal_bilevel@DjVuImage@@QBEHXZ   @2518
   ?is_legal_compound@DjVuImage@@QBEHXZ   @2519
   ?is_legal_photo@DjVuImage@@QBEHXZ   @2520
   ?map@DjVuImage@@QBEXAAH0@Z   @2521
   ?map@DjVuImage@@QBEXAAVGRect@@@Z   @2522
   ?notify_chunk_done@DjVuImage@@UAEXPBVDjVuPort@@ABVGUTF8String@@@Z   @2523
   ?notify_chunk_done@DjVuImageNotifier@@UAEXPBVDjVuPort@@ABVGUTF8String@@@Z   @2524
   ?notify_redisplay@DjVuImageNotifier@@UAEXPBVDjVuImage@@@Z   @2525
   ?notify_relayout@DjVuImageNotifier@@UAEXPBVDjVuImage@@@Z   @2526
   ?request_data@DjVuImageNotifier@@UAE?AV?$GP@VDataPool@@@@PBVDjVuPort@@ABVGURL@@@Z   @2527
   ?set_rotate@DjVuImage@@QAEXH@Z   @2528
   ?size@DjVuPalette@@QBEHXZ   @2529
   ?stencil@DjVuImage@@ABEHPAVGPixmap@@ABVGRect@@HN@Z   @2530
   ?unmap@DjVuImage@@QBEXAAH0@Z   @2531
   ?unmap@DjVuImage@@QBEXAAVGRect@@@Z   @2532
   ?wait_for_complete_decode@DjVuImage@@QAE_NXZ   @2533
   ?writeXML@DjVuImage@@QBEXAAVByteStream@@@Z   @2534
   ?writeXML@DjVuImage@@QBEXAAVByteStream@@ABVGURL@@H@Z   @2535
   ??0?$GArrayTemplate@PAX@@QAE@ABUTraits@@HH@Z   @2536
   ??0?$GListTemplate@V?$GP@VItem@DjVuFileCache@@@@VGPBase@@@@QAE@ABV0@@Z   @2537
   ??0?$GP@VItem@DjVuFileCache@@@@QAE@ABV0@@Z   @2538
   ??0?$GP@VItem@DjVuFileCache@@@@QAE@PAVItem@DjVuFileCache@@@Z   @2539
   ??0?$GPList@VItem@DjVuFileCache@@@@QAE@ABV0@@Z   @2540
   ??0?$GTArray@PAX@@QAE@H@Z   @2541
   ??0Item@DjVuFileCache@@QAE@ABV?$GP@VDjVuFile@@@@@Z   @2542
   ??1?$GArrayTemplate@PAX@@QAE@XZ   @2543
   ??1?$GListTemplate@V?$GP@VItem@DjVuFileCache@@@@VGPBase@@@@QAE@XZ   @2544
   ??1?$GP@VItem@DjVuFileCache@@@@QAE@XZ   @2545
   ??1?$GPList@VItem@DjVuFileCache@@@@QAE@XZ   @2546
   ??1?$GTArray@PAX@@QAE@XZ   @2547
   ??1DjVuFileCache@@UAE@XZ   @2548
   ??1Item@DjVuFileCache@@UAE@XZ   @2549
   ??8?$GP@VDjVuFile@@@@QBEHPAVDjVuFile@@@Z   @2550
   ??A?$GArrayTemplate@PAX@@QAEAAPAXH@Z   @2551
   ??A?$GListTemplate@V?$GP@VItem@DjVuFileCache@@@@VGPBase@@@@QAEAAV?$GP@VItem@DjVuFileCache@@@@VGPosition@@@Z   @2552
   ??B?$GListTemplate@V?$GP@VItem@DjVuFileCache@@@@VGPBase@@@@QBE?AVGPosition@@XZ   @2553
   ??B?$GP@VItem@DjVuFileCache@@@@QBEPAVItem@DjVuFileCache@@XZ   @2554
   ??C?$GP@VItem@DjVuFileCache@@@@QBEPAVItem@DjVuFileCache@@XZ   @2555
   ?add_file@DjVuFileCache@@QAEXABV?$GP@VDjVuFile@@@@@Z   @2556
   ?append@?$GListTemplate@V?$GP@VItem@DjVuFileCache@@@@VGPBase@@@@QAEXABV?$GP@VItem@DjVuFileCache@@@@@Z   @2557
   ?calculate_size@DjVuFileCache@@AAEHXZ   @2558
   ?clear_to_size@DjVuFileCache@@AAEXH@Z   @2559
   ?del@?$GListTemplate@V?$GP@VItem@DjVuFileCache@@@@VGPBase@@@@QAEXAAVGPosition@@@Z   @2560
   ?del_file@DjVuFileCache@@QAEXPBVDjVuFile@@@Z   @2561
   ?empty@?$GListTemplate@V?$GP@VItem@DjVuFileCache@@@@VGPBase@@@@QAEXXZ   @2562
   ?enable@DjVuFileCache@@QAEX_N@Z   @2563
   ?file_added@DjVuFileCache@@MAEXABV?$GP@VDjVuFile@@@@@Z   @2564
   ?file_cleared@DjVuFileCache@@MAEXABV?$GP@VDjVuFile@@@@@Z   @2565
   ?file_deleted@DjVuFileCache@@MAEXABV?$GP@VDjVuFile@@@@@Z   @2566
   ?firstpos@?$GListTemplate@V?$GP@VItem@DjVuFileCache@@@@VGPBase@@@@QBE?AVGPosition@@XZ   @2567
   ?get_file@Item@DjVuFileCache@@QBE?AV?$GP@VDjVuFile@@@@XZ   @2568
   ?get_items@DjVuFileCache@@IAE?AV?$GPList@VItem@DjVuFileCache@@@@XZ   @2569
   ?get_size@Item@DjVuFileCache@@QBEIXZ   @2570
   ?get_time@Item@DjVuFileCache@@QBEJXZ   @2571
   ?qsort_func@Item@DjVuFileCache@@SAHPBX0@Z   @2572
   ?refresh@Item@DjVuFileCache@@QAEXXZ   @2573
   ?set_max_size@DjVuFileCache@@QAEXH@Z   @2574
   ?size@?$GArrayTemplate@PAX@@QBEHXZ   @2575
   ?size@?$GListTemplate@V?$GP@VItem@DjVuFileCache@@@@VGPBase@@@@QBEHXZ   @2576
   ??0?$GListTemplate@V?$GP@VDjVuFile@@@@VGPBase@@@@QAE@ABV0@@Z   @2577
   ??0?$GListTemplate@V?$GP@VDjVuFile@@@@VGPBase@@@@QAE@XZ   @2578
   ??0?$GMap@VGURL@@PAX@@QAE@XZ   @2579
   ??0?$GMapImpl@VGURL@@PAX@@IAE@XZ   @2580
   ??0?$GMapTemplate@VGURL@@PAXPAX@@QAE@XZ   @2581
   ??0?$GP@VDjVuNavDir@@@@QAE@ABV0@@Z   @2582
   ??0?$GP@VDjVuNavDir@@@@QAE@PAVDjVuNavDir@@@Z   @2583
   ??0?$GP@VDjVuNavDir@@@@QAE@XZ   @2584
   ??0?$GP@VDjVuPalette@@@@QAE@XZ   @2585
   ??0?$GP@VIW44Image@@@@QAE@XZ   @2586
   ??0?$GP@VJB2Image@@@@QAE@XZ   @2587
   ??0?$GP@VJPEGImage@@@@QAE@XZ   @2588
   ??0?$GPList@VDjVuFile@@@@QAE@ABV0@@Z   @2589
   ??0?$GPList@VDjVuFile@@@@QAE@XZ   @2590
   ??0?$MapNode@VGURL@@PAX@@QAE@ABU0@@Z   @2591
   ??0?$MapNode@VGURL@@PAX@@QAE@XZ   @2592
   ??0DjVuFile@@IAE@XZ   @2593
   ??0DjVuSimplePort@@QAE@XZ   @2594
   ??0GSafeFlags@@QAE@J@Z   @2595
   ??0GThread@@QAE@H@Z   @2596
   ??0ProgressByteStream@@QAE@ABV?$GP@VByteStream@@@@@Z   @2597
   ??1?$GMap@VGURL@@PAX@@QAE@XZ   @2598
   ??1?$GMapImpl@VGURL@@PAX@@QAE@XZ   @2599
   ??1?$GMapTemplate@VGURL@@PAXPAX@@QAE@XZ   @2600
   ??1?$GP@VDjVuNavDir@@@@QAE@XZ   @2601
   ??1?$MapNode@VGURL@@PAX@@QAE@XZ   @2602
   ??1DjVuFile@@UAE@XZ   @2603
   ??1DjVuSimplePort@@UAE@XZ   @2604
   ??1GSafeFlags@@QAE@XZ   @2605
   ??1GThread@@QAE@XZ   @2606
   ??1ProgressByteStream@@UAE@XZ   @2607
   ??4?$GP@VDjVuFile@@@@QAEAAV0@PAVDjVuFile@@@Z   @2608
   ??4?$GP@VDjVuInfo@@@@QAEAAV0@ABV0@@Z   @2609
   ??4?$GP@VDjVuNavDir@@@@QAEAAV0@ABV0@@Z   @2610
   ??4?$GP@VDjVuNavDir@@@@QAEAAV0@PAVDjVuNavDir@@@Z   @2611
   ??4?$GP@VDjVuPalette@@@@QAEAAV0@ABV0@@Z   @2612
   ??4?$GP@VDjVuPalette@@@@QAEAAV0@PAVDjVuPalette@@@Z   @2613
   ??4?$GP@VDjVuPort@@@@QAEAAV0@ABV0@@Z   @2614
   ??4?$GP@VIW44Image@@@@QAEAAV0@ABV0@@Z   @2615
   ??4?$GP@VIW44Image@@@@QAEAAV0@PAVIW44Image@@@Z   @2616
   ??4?$GP@VJB2Image@@@@QAEAAV0@ABV0@@Z   @2617
   ??4?$GP@VJB2Image@@@@QAEAAV0@PAVJB2Image@@@Z   @2618
   ??4?$GP@VJPEGImage@@@@QAEAAV0@ABV0@@Z   @2619
   ??7?$GP@VDataPool@@@@QBEHXZ   @2620
   ??7?$GP@VDjVuNavDir@@@@QBEHXZ   @2621
   ??7?$GP@VDjVuPort@@@@QBEHXZ   @2622
   ??7?$GP@VIW44Image@@@@QBEHXZ   @2623
   ??A?$GMapTemplate@VGURL@@PAXPAX@@QAEAAPAXABVGURL@@@Z   @2624
   ??B?$GP@VDjVuNavDir@@@@QBEPAVDjVuNavDir@@XZ   @2625
   ??C?$GP@VDjVuNavDir@@@@QBEPAVDjVuNavDir@@XZ   @2626
   ??D?$GP@VIW44Image@@@@QBEAAVIW44Image@@XZ   @2627
   ??_4GSafeFlags@@QAEAAV0@J@Z   @2628
   ??_5GSafeFlags@@QAEAAV0@J@Z   @2629
   ?G_EXTHROW@@YAXABVGException@@PBD1H1W4source_type@1@@Z   @2630
   ?add_djvu_data@DjVuFile@@AAEXAAVIFFByteStream@@AAV?$GMap@VGURL@@PAX@@_N2@Z   @2631
   ?append@?$GListTemplate@V?$GP@VDjVuFile@@@@VGPBase@@@@QAEXABV?$GP@VDjVuFile@@@@@Z   @2632
   ?are_incl_files_created@DjVuFile@@QBE_NXZ   @2633
   ?change_info@DjVuFile@@QAEXV?$GP@VDjVuInfo@@@@_N@Z   @2634
   ?change_meta@DjVuFile@@QAEXABVGUTF8String@@_N@Z   @2635
   ?change_text@DjVuFile@@QAEXV?$GP@VDjVuTXT@@@@_N@Z   @2636
   ?check@DjVuFile@@ABEXXZ   @2637
   ?contains@?$GListTemplate@VGURL@@V1@@@QBE?AVGPosition@@ABVGURL@@@Z   @2638
   ?contains@?$GMapTemplate@VGURL@@PAXPAX@@QBE?AVGPosition@@ABVGURL@@@Z   @2639
   ?contains_anno@DjVuFile@@QAE_NXZ   @2640
   ?contains_chunk@DjVuFile@@QAE_NABVGUTF8String@@@Z   @2641
   ?contains_meta@DjVuFile@@QAE_NXZ   @2642
   ?contains_text@DjVuFile@@QAE_NXZ   @2643
   ?copy@?$NormTraits@U?$MapNode@VGURL@@PAX@@@@SAXPAXPBXHH@Z   @2644
   ?create@DjVuFile@@SA?AV?$GP@VDjVuFile@@@@ABV?$GP@VByteStream@@@@W4ErrorRecoveryAction@DjVuPort@@_N@Z   @2645
   ?create@DjVuFile@@SA?AV?$GP@VDjVuFile@@@@ABVGURL@@V?$GP@VDjVuPort@@@@W4ErrorRecoveryAction@DjVuPort@@_N@Z   @2646
   ?create@DjVuNavDir@@SA?AV?$GP@VDjVuNavDir@@@@ABVGURL@@@Z   @2647
   ?create@DjVuPalette@@SA?AV?$GP@VDjVuPalette@@@@XZ   @2648
   ?decode@DjVuFile@@AAEXABV?$GP@VByteStream@@@@@Z   @2649
   ?decode_chunk@DjVuFile@@AAE?AVGUTF8String@@ABV2@ABV?$GP@VByteStream@@@@_N22@Z   @2650
   ?decode_func@DjVuFile@@AAEXXZ   @2651
   ?decode_ndir@DjVuFile@@AAE?AV?$GP@VDjVuNavDir@@@@AAV?$GMap@VGURL@@PAX@@@Z   @2652
   ?decode_ndir@DjVuFile@@QAE?AV?$GP@VDjVuNavDir@@@@XZ   @2653
   ?del@?$GListTemplate@V?$GP@VDjVuFile@@@@VGPBase@@@@QAEXAAVGPosition@@@Z   @2654
   ?find_ndir@DjVuFile@@AAE?AV?$GP@VDjVuNavDir@@@@AAV?$GMap@VGURL@@PAX@@@Z   @2655
   ?find_ndir@DjVuFile@@QAE?AV?$GP@VDjVuNavDir@@@@XZ   @2656
   ?fini@?$NormTraits@U?$MapNode@VGURL@@PAX@@@@SAXPAXH@Z   @2657
   ?get_anno@DjVuFile@@CAXABV?$GP@VDjVuFile@@@@ABV?$GP@VByteStream@@@@@Z   @2658
   ?get_anno@DjVuFile@@QAE?AV?$GP@VByteStream@@@@XZ   @2659
   ?get_chunk_name@DjVuFile@@QAE?AVGUTF8String@@H@Z   @2660
   ?get_chunks_number@DjVuFile@@QAEHXZ   @2661
   ?get_djvu_bytestream@DjVuFile@@QAE?AV?$GP@VByteStream@@@@_N0@Z   @2662
   ?get_djvu_data@DjVuFile@@QAE?AV?$GP@VDataPool@@@@_N0@Z   @2663
   ?get_dpi@DjVuFile@@AAEHHH@Z   @2664
   ?get_fgjd@DjVuFile@@AAE?AV?$GP@VJB2Dict@@@@H@Z   @2665
   ?get_file@GException@@QBEPBDXZ   @2666
   ?get_function@GException@@QBEPBDXZ   @2667
   ?get_included_files@DjVuFile@@QAE?AV?$GPList@VDjVuFile@@@@_N@Z   @2668
   ?get_line@GException@@QBEHXZ   @2669
   ?get_memory_usage@DjVuFile@@QBEIXZ   @2670
   ?get_memory_usage@DjVuNavDir@@QBEHXZ   @2671
   ?get_memory_usage@GPixmap@@QBEIXZ   @2672
   ?get_merged_anno@DjVuFile@@CAXABV?$GP@VDjVuFile@@@@ABV?$GP@VByteStream@@@@ABV?$GList@VGURL@@@@HAAHAAV?$GMap@VGURL@@PAX@@@Z   @2673
   ?get_merged_anno@DjVuFile@@QAE?AV?$GP@VByteStream@@@@ABV?$GList@VGURL@@@@PAH@Z   @2674
   ?get_merged_anno@DjVuFile@@QAE?AV?$GP@VByteStream@@@@PAH@Z   @2675
   ?get_meta@DjVuFile@@CAXABV?$GP@VDjVuFile@@@@ABV?$GP@VByteStream@@@@@Z   @2676
   ?get_meta@DjVuFile@@QAE?AV?$GP@VByteStream@@@@XZ   @2677
   ?get_meta@DjVuFile@@QAEXAAVByteStream@@@Z   @2678
   ?get_or_create@?$GMapImpl@VGURL@@PAX@@IAEPAUHNode@@ABVGURL@@@Z   @2679
   ?get_text@DjVuFile@@CAXABV?$GP@VDjVuFile@@@@ABV?$GP@VByteStream@@@@@Z   @2680
   ?get_text@DjVuFile@@QAE?AV?$GP@VByteStream@@@@XZ   @2681
   ?get_text@DjVuFile@@QAEXAAVByteStream@@@Z   @2682
   ?inherits@DjVuFile@@UBE_NABVGUTF8String@@@Z   @2683
   ?inherits@DjVuSimplePort@@UBE_NABVGUTF8String@@@Z   @2684
   ?init@?$NormTraits@U?$MapNode@VGURL@@PAX@@@@SAXPAXH@Z   @2685
   ?init@DjVuFile@@QAEXABV?$GP@VByteStream@@@@@Z   @2686
   ?init@DjVuFile@@QAEXABVGURL@@V?$GP@VDjVuPort@@@@@Z   @2687
   ?insert_before@?$GListTemplate@V?$GP@VDjVuFile@@@@VGPBase@@@@QAEXVGPosition@@ABV?$GP@VDjVuFile@@@@@Z   @2688
   ?insert_file@DjVuFile@@QAEXABVGUTF8String@@H@Z   @2689
   ?is_all_data_present@DjVuFile@@QBE_NXZ   @2690
   ?is_data_present@DjVuFile@@QBE_NXZ   @2691
   ?is_decoding@DjVuFile@@QBE_NXZ   @2692
   ?is_eof@DataPool@@QBE_NXZ   @2693
   ?is_modified@DjVuFile@@QBE_NXZ   @2694
   ?lea@?$NormTraits@U?$MapNode@VGURL@@PAX@@@@SAPAXPAXH@Z   @2695
   ?merge_anno@DjVuFile@@QAEXAAVByteStream@@@Z   @2696
   ?move@DjVuFile@@AAEXAAV?$GMap@VGURL@@PAX@@ABVGURL@@@Z   @2697
   ?move@DjVuFile@@QAEXABVGURL@@@Z   @2698
   ?notify_chunk_done@DjVuFile@@UAEXPBVDjVuPort@@ABVGUTF8String@@@Z   @2699
   ?notify_file_flags_changed@DjVuFile@@UAEXPBV1@JJ@Z   @2700
   ?nth@?$GListTemplate@V?$GP@VDjVuFile@@@@VGPBase@@@@QBE?AVGPosition@@I@Z   @2701
   ?process_incl_chunk@DjVuFile@@AAE?AV?$GP@VDjVuFile@@@@AAVByteStream@@H@Z   @2702
   ?process_incl_chunks@DjVuFile@@QAEXXZ   @2703
   ?progress_cb@DjVuFile@@CAXHPAX@Z   @2704
   ?read@ProgressByteStream@@UAEIPAXI@Z   @2705
   ?rebuild_data_pool@DjVuFile@@QAEXXZ   @2706
   ?remove_anno@DjVuFile@@QAEXXZ   @2707
   ?remove_meta@DjVuFile@@QAEXXZ   @2708
   ?remove_text@DjVuFile@@QAEXXZ   @2709
   ?report_error@DjVuFile@@UAEXABVGException@@_N@Z   @2710
   ?reset@DjVuFile@@QAEXXZ   @2711
   ?resume_decode@DjVuFile@@QAE_N_N@Z   @2712
   ?search@?$GListImpl@VGURL@@@@IBEHABVGURL@@AAVGPosition@@@Z   @2713
   ?seek@ProgressByteStream@@UAEHJH_N@Z   @2714
   ?set_can_compress@DjVuFile@@QAEX_N@Z   @2715
   ?set_decode_codec@DjVuFile@@SAXP6A?AV?$GP@VGPixmap@@@@AAVByteStream@@@Z@Z   @2716
   ?set_name@DjVuFile@@QAEXABVGUTF8String@@@Z   @2717
   ?set_needs_compression@DjVuFile@@QAEX_N@Z   @2718
   ?set_progress_cb@ProgressByteStream@@QAEXP6AXHPAX@Z0@Z   @2719
   ?set_recover_errors@DjVuFile@@UAEXW4ErrorRecoveryAction@DjVuPort@@@Z   @2720
   ?set_verbose_eof@DjVuFile@@UAEX_N@Z   @2721
   ?size@?$GMapTemplate@VGURL@@PAXPAX@@QBEHXZ   @2722
   ?start_decode@DjVuFile@@QAEXXZ   @2723
   ?static_decode_func@DjVuFile@@CAXPAX@Z   @2724
   ?static_get_fgjd@DjVuFile@@CA?AV?$GP@VJB2Dict@@@@PAX@Z   @2725
   ?static_trigger_cb@DjVuFile@@CAXPAX@Z   @2726
   ?stop@DjVuFile@@QAEX_N@Z   @2727
   ?stop_decode@DjVuFile@@QAEX_N@Z   @2728
   ?tell@ProgressByteStream@@UBEJXZ   @2729
   ?theTraits@?1??traits@?$NormTraits@U?$MapNode@VGURL@@PAX@@@@SAABUTraits@@XZ@4U3@B   @2730
   ?traits@?$NormTraits@U?$MapNode@VGURL@@PAX@@@@SAABUTraits@@XZ   @2731
   ?trigger_cb@DjVuFile@@AAEXXZ   @2732
   ?unlink_file@DjVuFile@@QAEXABVGUTF8String@@@Z   @2733
   ?unlink_file@DjVuFile@@SA?AV?$GP@VDataPool@@@@ABV2@ABVGUTF8String@@@Z   @2734
   ?wait_for_chunk@DjVuFile@@AAEXXZ   @2735
   ?wait_for_finish@DjVuFile@@AAE_N_N@Z   @2736
   ?wait_for_finish@DjVuFile@@QAEXXZ   @2737
   ?write@ProgressByteStream@@UAEIPBXI@Z   @2738
   ??0DjVuErrorList@@IAE@XZ   @2739
   ??1?$GP@VDjVmDoc@@@@QAE@XZ   @2740
   ??1DjVuErrorList@@UAE@XZ   @2741
   ??4?$GP@VDataPool@@@@QAEAAV0@PAVDataPool@@@Z   @2742
   ??C?$GP@VDjVmDoc@@@@QBEPAVDjVmDoc@@XZ   @2743
   ?GetError@DjVuErrorList@@QAE?AVGUTF8String@@XZ   @2744
   ?GetStatus@DjVuErrorList@@QAE?AVGUTF8String@@XZ   @2745
   ?del@?$GListTemplate@VGUTF8String@@V1@@@QAEXAAVGPosition@@@Z   @2746
   ?notify_error@DjVuErrorList@@UAE_NPBVDjVuPort@@ABVGUTF8String@@@Z   @2747
   ?notify_status@DjVuErrorList@@UAE_NPBVDjVuPort@@ABVGUTF8String@@@Z   @2748
   ?request_data@DjVuErrorList@@UAE?AV?$GP@VDataPool@@@@PBVDjVuPort@@ABVGURL@@@Z   @2749
   ?set_stream@DjVuErrorList@@QAE?AVGURL@@V?$GP@VByteStream@@@@@Z   @2750
   ??0?$GArrayTemplate@V?$GP@VFile@DjVmDir@@@@@@QAE@ABUTraits@@@Z   @2751
   ??0?$GListTemplate@V?$GP@VFile@DjVmDir@@@@VGPBase@@@@QAE@XZ   @2752
   ??0?$GMapImpl@HVGPBase@@@@IAE@XZ   @2753
   ??0?$GMapImpl@HVGPBase@@@@QAE@ABV0@@Z   @2754
   ??0?$GMapImpl@VGUTF8String@@VGPBase@@@@IAE@XZ   @2755
   ??0?$GMapTemplate@HV?$GP@VFile@DjVmDir@@@@VGPBase@@@@QAE@ABV0@@Z   @2756
   ??0?$GMapTemplate@HV?$GP@VFile@DjVmDir@@@@VGPBase@@@@QAE@XZ   @2757
   ??0?$GMapTemplate@VGUTF8String@@V?$GP@VFile@DjVmDir@@@@VGPBase@@@@QAE@XZ   @2758
   ??0?$GP@VDjVmDir@@@@QAE@ABV0@@Z   @2759
   ??0?$GP@VDjVmDir@@@@QAE@PAVDjVmDir@@@Z   @2760
   ??0?$GP@VDjVmDir@@@@QAE@XZ   @2761
   ??0?$GP@VFile@DjVmDir@@@@QAE@ABV0@@Z   @2762
   ??0?$GPArray@VFile@DjVmDir@@@@QAE@XZ   @2763
   ??0?$GPList@VFile@DjVmDir@@@@QAE@XZ   @2764
   ??0?$GPMap@HVFile@DjVmDir@@@@QAE@ABV0@@Z   @2765
   ??0?$GPMap@HVFile@DjVmDir@@@@QAE@XZ   @2766
   ??0?$GPMap@VGUTF8String@@VFile@DjVmDir@@@@QAE@XZ   @2767
   ??0?$GSetImpl@H@@QAE@ABV0@@Z   @2768
   ??0?$MapNode@HVGPBase@@@@QAE@ABU0@@Z   @2769
   ??0?$MapNode@HVGPBase@@@@QAE@XZ   @2770
   ??0?$MapNode@VGUTF8String@@VGPBase@@@@QAE@ABU0@@Z   @2771
   ??0?$MapNode@VGUTF8String@@VGPBase@@@@QAE@XZ   @2772
   ??0DjVmDir@@IAE@XZ   @2773
   ??0DjVmInfo@@QAE@ABU0@@Z   @2774
   ??0DjVmInfo@@QAE@XZ   @2775
   ??1?$GArrayTemplate@V?$GP@VFile@DjVmDir@@@@@@QAE@XZ   @2776
   ??1?$GListTemplate@V?$GP@VFile@DjVmDir@@@@VGPBase@@@@QAE@XZ   @2777
   ??1?$GMapImpl@HVGPBase@@@@QAE@XZ   @2778
   ??1?$GMapImpl@VGUTF8String@@VGPBase@@@@QAE@XZ   @2779
   ??1?$GMapTemplate@HV?$GP@VFile@DjVmDir@@@@VGPBase@@@@QAE@XZ   @2780
   ??1?$GMapTemplate@VGUTF8String@@V?$GP@VFile@DjVmDir@@@@VGPBase@@@@QAE@XZ   @2781
   ??1?$GP@VDjVmDir@@@@QAE@XZ   @2782
   ??1?$GP@VFile@DjVmDir@@@@QAE@XZ   @2783
   ??1?$GPArray@VFile@DjVmDir@@@@QAE@XZ   @2784
   ??1?$GPList@VFile@DjVmDir@@@@QAE@XZ   @2785
   ??1?$GPMap@HVFile@DjVmDir@@@@QAE@XZ   @2786
   ??1?$GPMap@VGUTF8String@@VFile@DjVmDir@@@@QAE@XZ   @2787
   ??1?$MapNode@HVGPBase@@@@QAE@XZ   @2788
   ??1?$MapNode@VGUTF8String@@VGPBase@@@@QAE@XZ   @2789
   ??1DjVmDir@@UAE@XZ   @2790
   ??1DjVmInfo@@QAE@XZ   @2791
   ??4?$GP@VDjVmDir@@@@QAEAAV0@ABV0@@Z   @2792
   ??4?$GP@VFile@DjVmDir@@@@QAEAAV0@ABV0@@Z   @2793
   ??9?$GP@VFile@DjVmDir@@@@QBEHPAVFile@DjVmDir@@@Z   @2794
   ??A?$GListTemplate@V?$GP@VFile@DjVmDir@@@@VGPBase@@@@QAEAAV?$GP@VFile@DjVmDir@@@@VGPosition@@@Z   @2795
   ??A?$GListTemplate@V?$GP@VFile@DjVmDir@@@@VGPBase@@@@QBEABV?$GP@VFile@DjVmDir@@@@VGPosition@@@Z   @2796
   ??A?$GMapTemplate@HV?$GP@VFile@DjVmDir@@@@VGPBase@@@@QAEAAV?$GP@VFile@DjVmDir@@@@ABH@Z   @2797
   ??B?$GListTemplate@V?$GP@VFile@DjVmDir@@@@VGPBase@@@@QBE?AVGPosition@@XZ   @2798
   ??B?$GP@VDjVmDir@@@@QBEPAVDjVmDir@@XZ   @2799
   ??B?$GP@VFile@DjVmDir@@@@QBEPAVFile@DjVmDir@@XZ   @2800
   ??C?$GP@VDjVmDir@@@@QBEPAVDjVmDir@@XZ   @2801
   ??C?$GP@VFile@DjVmDir@@@@QBEPAVFile@DjVmDir@@XZ   @2802
   ?copy@?$NormTraits@U?$MapNode@HVGPBase@@@@@@SAXPAXPBXHH@Z   @2803
   ?copy@?$NormTraits@U?$MapNode@VGUTF8String@@VGPBase@@@@@@SAXPAXPBXHH@Z   @2804
   ?create@DjVmDir@@SA?AV?$GP@VDjVmDir@@@@XZ   @2805
   ?dump@DjVuDumpHelper@@QAE?AV?$GP@VByteStream@@@@ABV?$GP@VDataPool@@@@@Z   @2806
   ?dump@DjVuDumpHelper@@QAE?AV?$GP@VByteStream@@@@V2@@Z   @2807
   ?empty@?$GMapTemplate@HV?$GP@VFile@DjVmDir@@@@VGPBase@@@@QAEXXZ   @2808
   ?fini@?$NormTraits@U?$MapNode@HVGPBase@@@@@@SAXPAXH@Z   @2809
   ?fini@?$NormTraits@U?$MapNode@VGUTF8String@@VGPBase@@@@@@SAXPAXH@Z   @2810
   ?firstpos@?$GListTemplate@V?$GP@VFile@DjVmDir@@@@VGPBase@@@@QBE?AVGPosition@@XZ   @2811
   ?get_load_name@File@DjVmDir@@QBEABVGUTF8String@@XZ   @2812
   ?get_or_create@?$GMapImpl@HVGPBase@@@@IAEPAUHNode@@ABH@Z   @2813
   ?get_page_num@File@DjVmDir@@QBEHXZ   @2814
   ?init@?$NormTraits@U?$MapNode@HVGPBase@@@@@@SAXPAXH@Z   @2815
   ?init@?$NormTraits@U?$MapNode@VGUTF8String@@VGPBase@@@@@@SAXPAXH@Z   @2816
   ?is_indirect@DjVmDir@@QBE_NXZ   @2817
   ?is_page@File@DjVmDir@@QBE_NXZ   @2818
   ?lea@?$NormTraits@U?$MapNode@HVGPBase@@@@@@SAPAXPAXH@Z   @2819
   ?lea@?$NormTraits@U?$MapNode@VGUTF8String@@VGPBase@@@@@@SAPAXPAXH@Z   @2820
   ?size@?$GListTemplate@V?$GP@VFile@DjVmDir@@@@VGPBase@@@@QBEHXZ   @2821
   ?theTraits@?1??traits@?$NormTraits@U?$MapNode@HVGPBase@@@@@@SAABUTraits@@XZ@4U3@B   @2822
   ?theTraits@?1??traits@?$NormTraits@U?$MapNode@VGUTF8String@@VGPBase@@@@@@SAABUTraits@@XZ@4U3@B   @2823
   ?traits@?$NormTraits@U?$MapNode@HVGPBase@@@@@@SAABUTraits@@XZ   @2824
   ?traits@?$NormTraits@U?$MapNode@VGUTF8String@@VGPBase@@@@@@SAABUTraits@@XZ   @2825
   ??0?$GArrayTemplate@V?$GP@VFileRec@DjVmDir0@@@@@@QAE@ABUTraits@@@Z   @2826
   ??0?$GList@VGUTF8String@@@@QAE@ABV0@@Z   @2827
   ??0?$GListImpl@VGUTF8String@@@@QAE@ABV0@@Z   @2828
   ??0?$GListTemplate@V?$GP@VThumbReq@DjVuDocument@@@@VGPBase@@@@QAE@XZ   @2829
   ??0?$GListTemplate@V?$GP@VUnnamedFile@DjVuDocument@@@@VGPBase@@@@QAE@XZ   @2830
   ??0?$GListTemplate@VGUTF8String@@V1@@@QAE@ABV0@@Z   @2831
   ??0?$GMap@VGUTF8String@@V?$GP@VFileRec@DjVmDir0@@@@@@QAE@XZ   @2832
   ??0?$GMapImpl@VGUTF8String@@V?$GP@VFileRec@DjVmDir0@@@@@@IAE@XZ   @2833
   ??0?$GMapTemplate@VGUTF8String@@V?$GP@VFileRec@DjVmDir0@@@@V2@@@QAE@XZ   @2834
   ??0?$GP@VDjVmDir0@@@@QAE@PAVDjVmDir0@@@Z   @2835
   ??0?$GP@VDjVmDir0@@@@QAE@XZ   @2836
   ??0?$GP@VDjVmDoc@@@@QAE@ABV0@@Z   @2837
   ??0?$GP@VDjVmNav@@@@QAE@ABV0@@Z   @2838
   ??0?$GP@VDjVmNav@@@@QAE@XZ   @2839
   ??0?$GP@VDjVuDocument@@@@QAE@PAVDjVuDocument@@@Z   @2840
   ??0?$GP@VDjVuSimplePort@@@@QAE@XZ   @2841
   ??0?$GP@VFile@DjVmDir@@@@QAE@PAVFile@DjVmDir@@@Z   @2842
   ??0?$GP@VFile@DjVmDir@@@@QAE@XZ   @2843
   ??0?$GP@VFileRec@DjVmDir0@@@@QAE@ABV0@@Z   @2844
   ??0?$GP@VFileRec@DjVmDir0@@@@QAE@XZ   @2845
   ??0?$GP@VThumbReq@DjVuDocument@@@@QAE@ABV0@@Z   @2846
   ??0?$GP@VThumbReq@DjVuDocument@@@@QAE@PAVThumbReq@DjVuDocument@@@Z   @2847
   ??0?$GP@VUnnamedFile@DjVuDocument@@@@QAE@ABV0@@Z   @2848
   ??0?$GP@VUnnamedFile@DjVuDocument@@@@QAE@PAVUnnamedFile@DjVuDocument@@@Z   @2849
   ??0?$GP@VUnnamedFile@DjVuDocument@@@@QAE@XZ   @2850
   ??0?$GPArray@VFileRec@DjVmDir0@@@@QAE@XZ   @2851
   ??0?$GPList@VThumbReq@DjVuDocument@@@@QAE@XZ   @2852
   ??0?$GPList@VUnnamedFile@DjVuDocument@@@@QAE@XZ   @2853
   ??0?$MapNode@VGUTF8String@@V?$GP@VFileRec@DjVmDir0@@@@@@QAE@ABU0@@Z   @2854
   ??0?$MapNode@VGUTF8String@@V?$GP@VFileRec@DjVmDir0@@@@@@QAE@XZ   @2855
   ??0DjVmDir0@@IAE@XZ   @2856
   ??0DjVuDocument@@IAE@XZ   @2857
   ??0File@DjVmDir@@QAE@ABV01@@Z   @2858
   ??0ThumbReq@DjVuDocument@@IAE@HABV?$GP@VDataPool@@@@@Z   @2859
   ??0UnnamedFile@DjVuDocument@@IAE@HABVGUTF8String@@HABVGURL@@ABV?$GP@VDjVuFile@@@@@Z   @2860
   ??1?$GArrayTemplate@V?$GP@VFileRec@DjVmDir0@@@@@@QAE@XZ   @2861
   ??1?$GListTemplate@V?$GP@VThumbReq@DjVuDocument@@@@VGPBase@@@@QAE@XZ   @2862
   ??1?$GListTemplate@V?$GP@VUnnamedFile@DjVuDocument@@@@VGPBase@@@@QAE@XZ   @2863
   ??1?$GMap@VGUTF8String@@V?$GP@VFileRec@DjVmDir0@@@@@@QAE@XZ   @2864
   ??1?$GMapImpl@VGUTF8String@@V?$GP@VFileRec@DjVmDir0@@@@@@QAE@XZ   @2865
   ??1?$GMapTemplate@VGUTF8String@@V?$GP@VFileRec@DjVmDir0@@@@V2@@@QAE@XZ   @2866
   ??1?$GP@VDjVmDir0@@@@QAE@XZ   @2867
   ??1?$GP@VDjVmNav@@@@QAE@XZ   @2868
   ??1?$GP@VDjVuSimplePort@@@@QAE@XZ   @2869
   ??1?$GP@VFileRec@DjVmDir0@@@@QAE@XZ   @2870
   ??1?$GP@VThumbReq@DjVuDocument@@@@QAE@XZ   @2871
   ??1?$GP@VUnnamedFile@DjVuDocument@@@@QAE@XZ   @2872
   ??1?$GPArray@VFileRec@DjVmDir0@@@@QAE@XZ   @2873
   ??1?$GPList@VThumbReq@DjVuDocument@@@@QAE@XZ   @2874
   ??1?$GPList@VUnnamedFile@DjVuDocument@@@@QAE@XZ   @2875
   ??1?$MapNode@VGUTF8String@@V?$GP@VFileRec@DjVmDir0@@@@@@QAE@XZ   @2876
   ??1DjVmDir0@@UAE@XZ   @2877
   ??1DjVuDocument@@UAE@XZ   @2878
   ??1File@DjVmDir@@UAE@XZ   @2879
   ??1ThumbReq@DjVuDocument@@UAE@XZ   @2880
   ??1UnnamedFile@DjVuDocument@@UAE@XZ   @2881
   ??4?$GP@VDjVmDir0@@@@QAEAAV0@ABV0@@Z   @2882
   ??4?$GP@VDjVmNav@@@@QAEAAV0@ABV0@@Z   @2883
   ??4?$GP@VDjVuDocument@@@@QAEAAV0@PAVDjVuDocument@@@Z   @2884
   ??4?$GP@VDjVuSimplePort@@@@QAEAAV0@PAVDjVuSimplePort@@@Z   @2885
   ??4?$GP@VThumbReq@DjVuDocument@@@@QAEAAV0@ABV0@@Z   @2886
   ??4?$GP@VThumbReq@DjVuDocument@@@@QAEAAV0@PAVThumbReq@DjVuDocument@@@Z   @2887
   ??4?$GP@VUnnamedFile@DjVuDocument@@@@QAEAAV0@ABV0@@Z   @2888
   ??7?$GP@VFile@DjVmDir@@@@QBEHXZ   @2889
   ??7?$GP@VFileRec@DjVmDir0@@@@QBEHXZ   @2890
   ??8?$GP@VUnnamedFile@DjVuDocument@@@@QBEHPAVUnnamedFile@DjVuDocument@@@Z   @2891
   ??A?$GListTemplate@V?$GP@VThumbReq@DjVuDocument@@@@VGPBase@@@@QAEAAV?$GP@VThumbReq@DjVuDocument@@@@VGPosition@@@Z   @2892
   ??A?$GListTemplate@V?$GP@VUnnamedFile@DjVuDocument@@@@VGPBase@@@@QAEAAV?$GP@VUnnamedFile@DjVuDocument@@@@VGPosition@@@Z   @2893
   ??A?$GListTemplate@V?$GP@VUnnamedFile@DjVuDocument@@@@VGPBase@@@@QBEABV?$GP@VUnnamedFile@DjVuDocument@@@@VGPosition@@@Z   @2894
   ??B?$GListTemplate@V?$GP@VThumbReq@DjVuDocument@@@@VGPBase@@@@QBE?AVGPosition@@XZ   @2895
   ??B?$GListTemplate@V?$GP@VUnnamedFile@DjVuDocument@@@@VGPBase@@@@QBE?AVGPosition@@XZ   @2896
   ??B?$GMapTemplate@VGURL@@PAXPAX@@QBE?AVGPosition@@XZ   @2897
   ??B?$GP@VDjVmNav@@@@QBEPAVDjVmNav@@XZ   @2898
   ??B?$GP@VDjVuSimplePort@@@@QBEPAVDjVuSimplePort@@XZ   @2899
   ??B?$GP@VFileRec@DjVmDir0@@@@QBEPAVFileRec@DjVmDir0@@XZ   @2900
   ??B?$GP@VThumbReq@DjVuDocument@@@@QBEPAVThumbReq@DjVuDocument@@XZ   @2901
   ??B?$GP@VUnnamedFile@DjVuDocument@@@@QBEPAVUnnamedFile@DjVuDocument@@XZ   @2902
   ??C?$GP@VDjVmDir0@@@@QBEPAVDjVmDir0@@XZ   @2903
   ??C?$GP@VDjVmNav@@@@QBEPAVDjVmNav@@XZ   @2904
   ??C?$GP@VFileRec@DjVmDir0@@@@QBEPAVFileRec@DjVmDir0@@XZ   @2905
   ??C?$GP@VThumbReq@DjVuDocument@@@@QBEPAVThumbReq@DjVuDocument@@XZ   @2906
   ??C?$GP@VUnnamedFile@DjVuDocument@@@@QBEPAVUnnamedFile@DjVuDocument@@XZ   @2907
   ??D?$GP@VDjVmDoc@@@@QBEAAVDjVmDoc@@XZ   @2908
   ??D?$GP@VFile@DjVmDir@@@@QBEAAVFile@DjVmDir@@XZ   @2909
   ??D?$GP@VFileRec@DjVmDir0@@@@QBEAAVFileRec@DjVmDir0@@XZ   @2910
   ?add_thumb_req@DjVuDocument@@IAE?AV?$GP@VThumbReq@DjVuDocument@@@@ABV2@@Z   @2911
   ?add_to_cache@DjVuDocument@@IAEXABV?$GP@VDjVuFile@@@@@Z   @2912
   ?append@?$GListTemplate@V?$GP@VThumbReq@DjVuDocument@@@@VGPBase@@@@QAEXABV?$GP@VThumbReq@DjVuDocument@@@@@Z   @2913
   ?append@?$GListTemplate@V?$GP@VUnnamedFile@DjVuDocument@@@@VGPBase@@@@QAEXABV?$GP@VUnnamedFile@DjVuDocument@@@@@Z   @2914
   ?can_compress@DjVuFile@@QBE_NXZ   @2915
   ?check@DjVuDocument@@IBEXXZ   @2916
   ?check_unnamed_files@DjVuDocument@@IAEXXZ   @2917
   ?copy@?$NormTraits@U?$MapNode@VGUTF8String@@V?$GP@VFileRec@DjVmDir0@@@@@@@@SAXPAXPBXHH@Z   @2918
   ?create@DjVmDir0@@SA?AV?$GP@VDjVmDir0@@@@XZ   @2919
   ?create@DjVuDocument@@SA?AV?$GP@VDjVuDocument@@@@ABV?$GP@VByteStream@@@@V?$GP@VDjVuPort@@@@QAVDjVuFileCache@@@Z   @2920
   ?create@DjVuDocument@@SA?AV?$GP@VDjVuDocument@@@@ABVGURL@@V?$GP@VDjVuPort@@@@QAVDjVuFileCache@@@Z   @2921
   ?create@DjVuDocument@@SA?AV?$GP@VDjVuDocument@@@@V?$GP@VDataPool@@@@V?$GP@VDjVuPort@@@@QAVDjVuFileCache@@@Z   @2922
   ?create@GPixmap@@SA?AV?$GP@VGPixmap@@@@ABVGBitmap@@@Z   @2923
   ?create_wait@DjVuDocument@@SA?AV?$GP@VDjVuDocument@@@@ABVGURL@@V?$GP@VDjVuPort@@@@QAVDjVuFileCache@@@Z   @2924
   ?del@?$GListTemplate@V?$GP@VThumbReq@DjVuDocument@@@@VGPBase@@@@QAEXAAVGPosition@@@Z   @2925
   ?del@?$GListTemplate@V?$GP@VUnnamedFile@DjVuDocument@@@@VGPBase@@@@QAEXAAVGPosition@@@Z   @2926
   ?djvu_compress_codec@DjVuDocument@@1P6AXAAV?$GP@VByteStream@@@@ABVGURL@@_N@ZA   @2927
   ?djvu_import_codec@DjVuDocument@@1P6AXAAV?$GP@VDataPool@@@@ABVGURL@@AA_N2@ZA   @2928
   ?empty@?$GListTemplate@V?$GP@VUnnamedFile@DjVuDocument@@@@VGPBase@@@@QAEXXZ   @2929
   ?expand@DjVuDocument@@QAEXABVGURL@@ABVGUTF8String@@@Z   @2930
   ?fini@?$NormTraits@U?$MapNode@VGUTF8String@@V?$GP@VFileRec@DjVmDir0@@@@@@@@SAXPAXH@Z   @2931
   ?firstpos@?$GListTemplate@V?$GP@VThumbReq@DjVuDocument@@@@VGPBase@@@@QBE?AVGPosition@@XZ   @2932
   ?firstpos@?$GListTemplate@V?$GP@VUnnamedFile@DjVuDocument@@@@VGPBase@@@@QBE?AVGPosition@@XZ   @2933
   ?firstpos@?$GMapTemplate@VGURL@@PAXPAX@@QBE?AVGPosition@@XZ   @2934
   ?get_djvm_dir@DjVmDoc@@QAE?AV?$GP@VDjVmDir@@@@XZ   @2935
   ?get_djvm_doc@DjVuDocument@@QAE?AV?$GP@VDjVmDoc@@@@XZ   @2936
   ?get_djvu_file@DjVuDocument@@QAE?AV?$GP@VDjVuFile@@@@ABVGURL@@_N@Z   @2937
   ?get_djvu_file@DjVuDocument@@QAE?AV?$GP@VDjVuFile@@@@ABVGUTF8String@@_N@Z   @2938
   ?get_djvu_file@DjVuDocument@@QBE?AV?$GP@VDjVuFile@@@@H_N@Z   @2939
   ?get_files_num@DjVmDir0@@QBEHXZ   @2940
   ?get_id_list@DjVuDocument@@QAE?AV?$GList@VGUTF8String@@@@XZ   @2941
   ?get_int_prefix@DjVuDocument@@IBE?AVGUTF8String@@XZ   @2942
   ?get_page@DjVuDocument@@QAE?AV?$GP@VDjVuImage@@@@ABVGUTF8String@@_NPAVDjVuPort@@@Z   @2943
   ?get_page@DjVuDocument@@QBE?AV?$GP@VDjVuImage@@@@H_NPAVDjVuPort@@@Z   @2944
   ?get_pages_num@DjVuDocument@@QBEHXZ   @2945
   ?get_safe_flags@DjVuFile@@QAEAAVGSafeFlags@@XZ   @2946
   ?get_thumbnail@DjVuDocument@@UAE?AV?$GP@VDataPool@@@@H_N@Z   @2947
   ?get_url_names@DjVuDocument@@UAE?AV?$GList@VGURL@@@@XZ   @2948
   ?id_to_file@DjVuDocument@@UAE?AV?$GP@VDjVuFile@@@@PBVDjVuPort@@ABVGUTF8String@@@Z   @2949
   ?id_to_url@DjVuDocument@@QBE?AVGURL@@ABVGUTF8String@@@Z   @2950
   ?id_to_url@DjVuDocument@@UAE?AVGURL@@PBVDjVuPort@@ABVGUTF8String@@@Z   @2951
   ?inherits@DjVuDocument@@UBE_NABVGUTF8String@@@Z   @2952
   ?init@?$NormTraits@U?$MapNode@VGUTF8String@@V?$GP@VFileRec@DjVmDir0@@@@@@@@SAXPAXH@Z   @2953
   ?init_thread@DjVuDocument@@IAEXXZ   @2954
   ?invent_url@DjVuDocument@@IBE?AVGURL@@ABVGUTF8String@@@Z   @2955
   ?is_bundled@DjVmDir@@QBE_NXZ   @2956
   ?is_init_complete@DjVuDocument@@QBE_NXZ   @2957
   ?is_thumbnails@File@DjVmDir@@QBE_NXZ   @2958
   ?key@?$GMapTemplate@VGURL@@PAXPAX@@QBEABVGURL@@ABVGPosition@@@Z   @2959
   ?lea@?$NormTraits@U?$MapNode@VGUTF8String@@V?$GP@VFileRec@DjVmDir0@@@@@@@@SAPAXPAXH@Z   @2960
   ?map_ids@DjVuDocument@@QAEXAAV?$GMap@VGUTF8String@@PAX@@@Z   @2961
   ?needs_compression@DjVuDocument@@QBE_NXZ   @2962
   ?needs_compression@DjVuFile@@QBE_NXZ   @2963
   ?notify_file_flags_changed@DjVuDocument@@UAEXPBVDjVuFile@@JJ@Z   @2964
   ?page_to_url@DjVuDocument@@QBE?AVGURL@@H@Z   @2965
   ?process_threqs@DjVuDocument@@IAEXXZ   @2966
   ?request_data@DjVuDocument@@UAE?AV?$GP@VDataPool@@@@PBVDjVuPort@@ABVGURL@@@Z   @2967
   ?save_as@DjVuDocument@@UAEXABVGURL@@_N@Z   @2968
   ?set_compress_codec@DjVuDocument@@SAXP6AXAAV?$GP@VByteStream@@@@ABVGURL@@_N@Z@Z   @2969
   ?set_file_aliases@DjVuDocument@@IAEXPBVDjVuFile@@@Z   @2970
   ?set_import_codec@DjVuDocument@@SAXP6AXAAV?$GP@VDataPool@@@@ABVGURL@@AA_N2@Z@Z   @2971
   ?set_recover_errors@DjVuDocument@@UAEXW4ErrorRecoveryAction@DjVuPort@@@Z   @2972
   ?set_verbose_eof@DjVuDocument@@UAEX_N@Z   @2973
   ?size@?$GArrayTemplate@V?$GP@VFileRec@DjVmDir0@@@@@@QBEHXZ   @2974
   ?start_init@DjVuDocument@@QAEXABVGURL@@V?$GP@VDjVuPort@@@@PAVDjVuFileCache@@@Z   @2975
   ?static_init_thread@DjVuDocument@@KAXPAX@Z   @2976
   ?stop_init@DjVuDocument@@QAEXXZ   @2977
   ?theTraits@?1??traits@?$NormTraits@U?$MapNode@VGUTF8String@@V?$GP@VFileRec@DjVmDir0@@@@@@@@SAABUTraits@@XZ@4U3@B   @2978
   ?thumb_gamma@DjVuDocument@@1MB   @2979
   ?traits@?$NormTraits@U?$MapNode@VGUTF8String@@V?$GP@VFileRec@DjVmDir0@@@@@@@@SAABUTraits@@XZ   @2980
   ?url_to_file@DjVuDocument@@MBE?AV?$GP@VDjVuFile@@@@ABVGURL@@_N@Z   @2981
   ?url_to_page@DjVuDocument@@QBEHABVGURL@@@Z   @2982
   ?wait_for_complete_init@DjVuDocument@@QAE_NXZ   @2983
   ?wait_get_pages_num@DjVuDocument@@QBEHXZ   @2984
   ?write@DjVuDocument@@UAEXABV?$GP@VByteStream@@@@ABV?$GMap@VGUTF8String@@PAX@@@Z   @2985
   ?write@DjVuDocument@@UAEXABV?$GP@VByteStream@@@@_N@Z   @2986
   ?writeDjVuXML@DjVuDocument@@QBEXABV?$GP@VByteStream@@@@H@Z   @2987
   ??0?$GArray@H@@QAE@H@Z   @2988
   ??0?$GList@H@@QAE@ABV0@@Z   @2989
   ??0?$GListImpl@H@@QAE@ABV0@@Z   @2990
   ??0?$GListTemplate@HH@@QAE@ABV0@@Z   @2991
   ??0?$GMapTemplate@VGUTF8String@@V?$GP@VDataPool@@@@VGPBase@@@@QAE@XZ   @2992
   ??0?$GMapTemplate@VGUTF8String@@V?$GP@VFile@DjVuDocEditor@@@@VGPBase@@@@QAE@XZ   @2993
   ??0?$GP@VDjVuDocEditor@@@@QAE@ABV0@@Z   @2994
   ??0?$GP@VDjVuDocEditor@@@@QAE@PAVDjVuDocEditor@@@Z   @2995
   ??0?$GP@VFile@DjVuDocEditor@@@@QAE@ABV0@@Z   @2996
   ??0?$GP@VFile@DjVuDocEditor@@@@QAE@PAVFile@DjVuDocEditor@@@Z   @2997
   ??0?$GPMap@VGUTF8String@@VDataPool@@@@QAE@XZ   @2998
   ??0?$GPMap@VGUTF8String@@VFile@DjVuDocEditor@@@@QAE@XZ   @2999
   ??0DjVuDocEditor@@IAE@XZ   @3000
   ??0File@DjVuDocEditor@@QAE@XZ   @3001
   ??1?$GArray@H@@QAE@XZ   @3002
   ??1?$GMapTemplate@VGUTF8String@@V?$GP@VDataPool@@@@VGPBase@@@@QAE@XZ   @3003
   ??1?$GMapTemplate@VGUTF8String@@V?$GP@VFile@DjVuDocEditor@@@@VGPBase@@@@QAE@XZ   @3004
   ??1?$GP@VDjVuDocEditor@@@@QAE@XZ   @3005
   ??1?$GP@VFile@DjVuDocEditor@@@@QAE@XZ   @3006
   ??1?$GPMap@VGUTF8String@@VDataPool@@@@QAE@XZ   @3007
   ??1?$GPMap@VGUTF8String@@VFile@DjVuDocEditor@@@@QAE@XZ   @3008
   ??1DjVuDocEditor@@UAE@XZ   @3009
   ??1File@DjVuDocEditor@@UAE@XZ   @3010
   ??4?$GP@VFile@DjVmDir@@@@QAEAAV0@PAVFile@DjVmDir@@@Z   @3011
   ??4?$GP@VFile@DjVuDocEditor@@@@QAEAAV0@ABV0@@Z   @3012
   ??4?$GP@VIFFByteStream@@@@QAEAAV0@ABV0@@Z   @3013
   ??8?$GP@VByteStream@@@@QBEHPAVByteStream@@@Z   @3014
   ??A?$GListTemplate@HH@@QBEABHVGPosition@@@Z   @3015
   ??A?$GListTemplate@VGURL@@V1@@@QBEABVGURL@@VGPosition@@@Z   @3016
   ??A?$GMapTemplate@VGUTF8String@@PAXPAX@@QAEAAPAXABVGPosition@@@Z   @3017
   ??A?$GMapTemplate@VGUTF8String@@V?$GP@VDataPool@@@@VGPBase@@@@QAEAAV?$GP@VDataPool@@@@ABVGPosition@@@Z   @3018
   ??A?$GMapTemplate@VGUTF8String@@V?$GP@VDataPool@@@@VGPBase@@@@QAEAAV?$GP@VDataPool@@@@ABVGUTF8String@@@Z   @3019
   ??A?$GMapTemplate@VGUTF8String@@V?$GP@VDataPool@@@@VGPBase@@@@QBEABV?$GP@VDataPool@@@@ABVGPosition@@@Z   @3020
   ??A?$GMapTemplate@VGUTF8String@@V?$GP@VFile@DjVuDocEditor@@@@VGPBase@@@@QAEAAV?$GP@VFile@DjVuDocEditor@@@@ABVGPosition@@@Z   @3021
   ??A?$GMapTemplate@VGUTF8String@@V?$GP@VFile@DjVuDocEditor@@@@VGPBase@@@@QAEAAV?$GP@VFile@DjVuDocEditor@@@@ABVGUTF8String@@@Z   @3022
   ??A?$GMapTemplate@VGUTF8String@@V?$GP@VFile@DjVuDocEditor@@@@VGPBase@@@@QBEABV?$GP@VFile@DjVuDocEditor@@@@ABVGPosition@@@Z   @3023
   ??A?$GMapTemplate@VGUTF8String@@V?$GP@VFile@DjVuDocEditor@@@@VGPBase@@@@QBEABV?$GP@VFile@DjVuDocEditor@@@@ABVGUTF8String@@@Z   @3024
   ??B?$GArrayTemplate@H@@QAEPAHXZ   @3025
   ??B?$GMapTemplate@VGUTF8String@@PAXPAX@@QBE?AVGPosition@@XZ   @3026
   ??B?$GMapTemplate@VGUTF8String@@V?$GP@VFile@DjVuDocEditor@@@@VGPBase@@@@QBE?AVGPosition@@XZ   @3027
   ??C?$GP@VFile@DjVuDocEditor@@@@QBEPAVFile@DjVuDocEditor@@XZ   @3028
   ??D?$GP@VDataPool@@@@QBEAAVDataPool@@XZ   @3029
   ?can_be_saved@DjVuDocEditor@@QBE_NXZ   @3030
   ?check@DjVuDocEditor@@AAEXXZ   @3031
   ?clean_files_map@DjVuDocEditor@@AAEXXZ   @3032
   ?contains@?$GMapTemplate@VGUTF8String@@V?$GP@VDataPool@@@@VGPBase@@@@QBE?AVGPosition@@ABVGUTF8String@@@Z   @3033
   ?contains@?$GMapTemplate@VGUTF8String@@V?$GP@VFile@DjVuDocEditor@@@@VGPBase@@@@QBE?AVGPosition@@ABVGUTF8String@@@Z   @3034
   ?contains@?$GMapTemplate@VGUTF8String@@V?$GP@VFile@DjVuDocEditor@@@@VGPBase@@@@QBE?AVGPosition@@ABVGUTF8String@@AAV2@@Z   @3035
   ?copy@?$NormTraits@H@@SAXPAXPBXHH@Z   @3036
   ?create_noinit@DjVuDocument@@SA?AV?$GP@VDjVuDocument@@@@XZ   @3037
   ?create_shared_anno_file@DjVuDocEditor@@QAEXP6AXMPAX@Z0@Z   @3038
   ?create_wait@DjVuDocEditor@@SA?AV?$GP@VDjVuDocEditor@@@@ABVGURL@@@Z   @3039
   ?create_wait@DjVuDocEditor@@SA?AV?$GP@VDjVuDocEditor@@@@XZ   @3040
   ?del@?$GMapTemplate@VGUTF8String@@PAXPAX@@QAEXAAVGPosition@@@Z   @3041
   ?del@?$GMapTemplate@VGUTF8String@@PAXPAX@@QAEXABVGUTF8String@@@Z   @3042
   ?del@?$GMapTemplate@VGUTF8String@@V?$GP@VDataPool@@@@VGPBase@@@@QAEXAAVGPosition@@@Z   @3043
   ?del@?$GMapTemplate@VGUTF8String@@V?$GP@VFile@DjVuDocEditor@@@@VGPBase@@@@QAEXAAVGPosition@@@Z   @3044
   ?del@?$GSetImpl@VGUTF8String@@@@QAEXABVGUTF8String@@@Z   @3045
   ?empty@?$GListTemplate@V?$GP@VThumbReq@DjVuDocument@@@@VGPBase@@@@QAEXXZ   @3046
   ?empty@?$GMapTemplate@VGUTF8String@@V?$GP@VDataPool@@@@VGPBase@@@@QAEXXZ   @3047
   ?empty@?$GMapTemplate@VGUTF8String@@V?$GP@VFile@DjVuDocEditor@@@@VGPBase@@@@QAEXXZ   @3048
   ?file_thumbnails@DjVuDocEditor@@AAEXXZ   @3049
   ?find_unique_id@DjVuDocEditor@@AAE?AVGUTF8String@@V2@@Z   @3050
   ?fini@?$NormTraits@H@@SAXPAXH@Z   @3051
   ?firstpos@?$GMapTemplate@VGUTF8String@@PAXPAX@@QBE?AVGPosition@@XZ   @3052
   ?firstpos@?$GMapTemplate@VGUTF8String@@V?$GP@VFile@DjVuDocEditor@@@@VGPBase@@@@QBE?AVGPosition@@XZ   @3053
   ?generate_ref_map@DjVuDocEditor@@AAEXABV?$GP@VDjVuFile@@@@AAV?$GMap@VGUTF8String@@PAX@@AAV?$GMap@VGURL@@PAX@@@Z   @3054
   ?generate_thumbnails@DjVuDocEditor@@QAEHHH@Z   @3055
   ?generate_thumbnails@DjVuDocEditor@@QAEXHP6A_NHPAX@Z0@Z   @3056
   ?get_djvm_dir@DjVuDocument@@QBE?AV?$GP@VDjVmDir@@@@XZ   @3057
   ?get_doc_url@DjVuDocEditor@@QBE?AVGURL@@XZ   @3058
   ?get_or_create@?$GMapImpl@VGUTF8String@@VGPBase@@@@IAEPAUHNode@@ABVGUTF8String@@@Z   @3059
   ?get_orig_doc_type@DjVuDocEditor@@QBEHXZ   @3060
   ?get_save_doc_type@DjVuDocEditor@@QBEHXZ   @3061
   ?get_shared_anno_file@DjVuDocEditor@@QAE?AV?$GP@VDjVuFile@@@@XZ   @3062
   ?get_thumbnail@DjVuDocEditor@@MAE?AV?$GP@VDataPool@@@@H_N@Z   @3063
   ?get_thumbnails_gamma@DjVuDocument@@QBEMXZ   @3064
   ?get_thumbnails_num@DjVuDocEditor@@QBEHXZ   @3065
   ?get_thumbnails_size@DjVuDocEditor@@QBEHXZ   @3066
   ?inherits@DjVuDocEditor@@UBE_NABVGUTF8String@@@Z   @3067
   ?init@?$NormTraits@H@@SAXPAXH@Z   @3068
   ?init@DjVuDocEditor@@IAEXABVGURL@@@Z   @3069
   ?init@DjVuDocEditor@@IAEXXZ   @3070
   ?init@DjVuDocument@@QAEXABVGURL@@V?$GP@VDjVuPort@@@@PAVDjVuFileCache@@@Z   @3071
   ?insert_file@DjVuDocEditor@@AAE_NABV?$GP@VDataPool@@@@ABVGURL@@_NAAHAAV?$GMap@VGUTF8String@@V1@@@PAVDjVuPort@@@Z   @3072
   ?insert_file@DjVuDocEditor@@AAE_NABVGURL@@_NAAHAAV?$GMap@VGUTF8String@@V1@@@PAVDjVuPort@@@Z   @3073
   ?insert_file@DjVuDocEditor@@QAE?AVGUTF8String@@ABVGURL@@ABV2@HPAVDjVuPort@@@Z   @3074
   ?insert_group@DjVuDocEditor@@QAEXABV?$GList@VGURL@@@@HP6AXPAX@Z1@Z   @3075
   ?insert_page@DjVuDocEditor@@QAEXAAV?$GP@VDataPool@@@@ABVGURL@@H@Z   @3076
   ?insert_page@DjVuDocEditor@@QAEXABVGURL@@H@Z   @3077
   ?is_include@File@DjVmDir@@QBE_NXZ   @3078
   ?is_init_ok@DjVuDocument@@QBE_NXZ   @3079
   ?key@?$GMapTemplate@VGUTF8String@@PAXPAX@@QBEABVGUTF8String@@ABVGPosition@@@Z   @3080
   ?key@?$GMapTemplate@VGUTF8String@@V?$GP@VFile@DjVuDocEditor@@@@VGPBase@@@@QBEABVGUTF8String@@ABVGPosition@@@Z   @3081
   ?lastpos@?$GListTemplate@VGUTF8String@@V1@@@QBE?AVGPosition@@XZ   @3082
   ?lea@?$NormTraits@H@@SAPAXPAXH@Z   @3083
   ?move_file@DjVuDocEditor@@AAEXABVGUTF8String@@AAHAAV?$GMap@VGUTF8String@@PAX@@@Z   @3084
   ?move_page@DjVuDocEditor@@QAEXHH@Z   @3085
   ?move_pages@DjVuDocEditor@@QAEXABV?$GList@H@@H@Z   @3086
   ?needs_rename@DjVuDocument@@QBE_NXZ   @3087
   ?page_to_id@DjVuDocEditor@@QBE?AVGUTF8String@@H@Z   @3088
   ?remove_file@DjVuDocEditor@@AAEXABVGUTF8String@@_NAAV?$GMap@VGUTF8String@@PAX@@@Z   @3089
   ?remove_file@DjVuDocEditor@@QAEXABVGUTF8String@@_N@Z   @3090
   ?remove_page@DjVuDocEditor@@QAEXH_N@Z   @3091
   ?remove_pages@DjVuDocEditor@@QAEXABV?$GList@H@@_N@Z   @3092
   ?remove_thumbnails@DjVuDocEditor@@QAEXXZ   @3093
   ?request_data@DjVuDocEditor@@UAE?AV?$GP@VDataPool@@@@PBVDjVuPort@@ABVGURL@@@Z   @3094
   ?save@DjVuDocEditor@@QAEXXZ   @3095
   ?save_as@DjVuDocEditor@@UAEXABVGURL@@_N@Z   @3096
   ?save_file@DjVuDocEditor@@AAEXABVGUTF8String@@ABVGURL@@AAV?$GMap@VGUTF8String@@V1@@@@Z   @3097
   ?save_file@DjVuDocEditor@@AAEXABVGUTF8String@@ABVGURL@@_NAAV?$GMap@VGUTF8String@@V1@@@@Z   @3098
   ?save_pages_as@DjVuDocEditor@@QAEXABV?$GP@VByteStream@@@@ABV?$GList@H@@@Z   @3099
   ?set_djvm_nav@DjVuDocEditor@@QAEXV?$GP@VDjVmNav@@@@@Z   @3100
   ?set_file_name@DjVuDocEditor@@QAEXABVGUTF8String@@0@Z   @3101
   ?set_file_title@DjVuDocEditor@@QAEXABVGUTF8String@@0@Z   @3102
   ?set_page_name@DjVuDocEditor@@QAEXHABVGUTF8String@@@Z   @3103
   ?set_page_title@DjVuDocEditor@@QAEXHABVGUTF8String@@@Z   @3104
   ?simple_compare@DataPool@@QBE_NAAV1@@Z   @3105
   ?simplify_anno@DjVuDocEditor@@QAEXP6AXMPAX@Z0@Z   @3106
   ?size@?$GArrayTemplate@H@@QBEHXZ   @3107
   ?size@?$GMapTemplate@VGUTF8String@@PAXPAX@@QBEHXZ   @3108
   ?strip_incl_chunks@DjVuDocEditor@@AAE?AV?$GP@VDataPool@@@@ABV2@@Z   @3109
   ?theTraits@?1??traits@?$NormTraits@H@@SAABUTraits@@XZ@4U3@B   @3110
   ?thumbnails_per_file@DjVuDocEditor@@2HA   @3111
   ?traits@?$NormTraits@H@@SAABUTraits@@XZ   @3112
   ?unfile_thumbnails@DjVuDocEditor@@AAEXXZ   @3113
   ?url_to_file@DjVuDocEditor@@MBE?AV?$GP@VDjVuFile@@@@ABVGURL@@_N@Z   @3114
   ?write@DjVuDocEditor@@UAEXABV?$GP@VByteStream@@@@ABV?$GMap@VGUTF8String@@PAX@@@Z   @3115
   ?write@DjVuDocEditor@@UAEXABV?$GP@VByteStream@@@@_N@Z   @3116
   ??0?$GListTemplate@V?$GP@VGLObject@@@@VGPBase@@@@QAE@ABV0@@Z   @3117
   ??0?$GListTemplate@V?$GP@VGLObject@@@@VGPBase@@@@QAE@XZ   @3118
   ??0?$GListTemplate@V?$GP@VGMapArea@@@@VGPBase@@@@QAE@ABV0@@Z   @3119
   ??0?$GListTemplate@V?$GP@VGMapArea@@@@VGPBase@@@@QAE@XZ   @3120
   ??0?$GP@VDjVuANT@@@@QAE@ABV0@@Z   @3121
   ??0?$GP@VGLObject@@@@QAE@ABV0@@Z   @3122
   ??0?$GP@VGLObject@@@@QAE@PAVGLObject@@@Z   @3123
   ??0?$GP@VGLObject@@@@QAE@XZ   @3124
   ??0?$GPList@VGLObject@@@@QAE@ABV0@@Z   @3125
   ??0?$GPList@VGLObject@@@@QAE@XZ   @3126
   ??0?$GPList@VGMapArea@@@@QAE@ABV0@@Z   @3127
   ??0?$GPList@VGMapArea@@@@QAE@XZ   @3128
   ??0?$GTArray@H@@QAE@H@Z   @3129
   ??0DjVuANT@@IAE@XZ   @3130
   ??0DjVuANT@@QAE@ABV0@@Z   @3131
   ??0GLObject@@QAE@H@Z   @3132
   ??0GLObject@@QAE@PBDABV?$GPList@VGLObject@@@@@Z   @3133
   ??0GLObject@@QAE@W4GLObjectType@0@PBD@Z   @3134
   ??0GLParser@@QAE@PBD@Z   @3135
   ??0GLParser@@QAE@XZ   @3136
   ??0GLToken@@QAE@W4GLTokenType@0@ABV?$GP@VGLObject@@@@@Z   @3137
   ??1?$GListTemplate@V?$GP@VGLObject@@@@VGPBase@@@@QAE@XZ   @3138
   ??1?$GListTemplate@V?$GP@VGMapArea@@@@VGPBase@@@@QAE@XZ   @3139
   ??1?$GP@VGLObject@@@@QAE@XZ   @3140
   ??1?$GPList@VGLObject@@@@QAE@XZ   @3141
   ??1?$GPList@VGMapArea@@@@QAE@XZ   @3142
   ??1DjVuANT@@UAE@XZ   @3143
   ??1GLObject@@UAE@XZ   @3144
   ??1GLParser@@QAE@XZ   @3145
   ??1GLToken@@QAE@XZ   @3146
   ??4?$GMap@VGUTF8String@@V1@@@QAEAAV0@ABV0@@Z   @3147
   ??4?$GP@VGLObject@@@@QAEAAV0@ABV0@@Z   @3148
   ??4?$GPList@VGMapArea@@@@QAEAAV0@ABV0@@Z   @3149
   ??4DjVuAnno@@QAEAAV0@ABV0@@Z   @3150
   ??A?$GListTemplate@V?$GP@VGLObject@@@@VGPBase@@@@QAEAAV?$GP@VGLObject@@@@VGPosition@@@Z   @3151
   ??A?$GListTemplate@V?$GP@VGLObject@@@@VGPBase@@@@QBEABV?$GP@VGLObject@@@@VGPosition@@@Z   @3152
   ??A?$GListTemplate@V?$GP@VGMapArea@@@@VGPBase@@@@QBEABV?$GP@VGMapArea@@@@VGPosition@@@Z   @3153
   ??AGLObject@@QBE?AV?$GP@VGLObject@@@@H@Z   @3154
   ??B?$GListTemplate@V?$GP@VGLObject@@@@VGPBase@@@@QBE?AVGPosition@@XZ   @3155
   ??B?$GP@VDjVuAnno@@@@QBEPAVDjVuAnno@@XZ   @3156
   ??B?$GP@VGLObject@@@@QBEPAVGLObject@@XZ   @3157
   ??C?$GP@VGLObject@@@@QBEPAVGLObject@@XZ   @3158
   ??D?$GP@VGLObject@@@@QBEAAVGLObject@@XZ   @3159
   ?GLObjectString@GLObject@@2QBQBDB   @3160
   ?append@?$GListTemplate@V?$GP@VGLObject@@@@VGPBase@@@@QAEXABV?$GP@VGLObject@@@@@Z   @3161
   ?check_compat@GLParser@@AAEXPBD@Z   @3162
   ?copy@DjVuANT@@QBE?AV?$GP@VDjVuANT@@@@XZ   @3163
   ?copy@DjVuAnno@@QBE?AV?$GP@VDjVuAnno@@@@XZ   @3164
   ?create@GMapPoly@@SA?AV?$GP@VGMapPoly@@@@QBH0H_N@Z   @3165
   ?cvt_color@DjVuANT@@SAKPBDK@Z   @3166
   ?decode@DjVuANT@@AAEXAAVGLParser@@@Z   @3167
   ?decode@DjVuANT@@QAEXAAVByteStream@@@Z   @3168
   ?decode@DjVuAnno@@QAEXABV?$GP@VByteStream@@@@@Z   @3169
   ?decode_comp@DjVuANT@@CAEDD@Z   @3170
   ?del@?$GListTemplate@V?$GP@VGLObject@@@@VGPBase@@@@QAEXAAVGPosition@@@Z   @3171
   ?del_all_items@DjVuANT@@CAXPBDAAVGLParser@@@Z   @3172
   ?encode@DjVuANT@@QAEXAAVByteStream@@@Z   @3173
   ?encode@DjVuAnno@@QAEXABV?$GP@VByteStream@@@@@Z   @3174
   ?encode_raw@DjVuANT@@QBE?AVGUTF8String@@XZ   @3175
   ?firstpos@?$GListTemplate@V?$GP@VGLObject@@@@VGPBase@@@@QBE?AVGPosition@@XZ   @3176
   ?get_bg_color@DjVuANT@@CAKAAVGLParser@@@Z   @3177
   ?get_hor_align@DjVuANT@@CA?AW4alignment@1@AAVGLParser@@@Z   @3178
   ?get_list@GLObject@@QAEAAV?$GPList@VGLObject@@@@XZ   @3179
   ?get_list@GLParser@@QAEAAV?$GPList@VGLObject@@@@XZ   @3180
   ?get_map_areas@DjVuANT@@CA?AV?$GPList@VGMapArea@@@@AAVGLParser@@@Z   @3181
   ?get_memory_usage@DjVuANT@@QBEIXZ   @3182
   ?get_metadata@DjVuANT@@CA?AV?$GMap@VGUTF8String@@V1@@@AAVGLParser@@@Z   @3183
   ?get_mode@DjVuANT@@CAHAAVGLParser@@@Z   @3184
   ?get_name@GLObject@@QBE?AVGUTF8String@@XZ   @3185
   ?get_number@GLObject@@QBEHXZ   @3186
   ?get_object@GLParser@@QAE?AV?$GP@VGLObject@@@@PBD_N@Z   @3187
   ?get_paramtags@DjVuANT@@QBE?AVGUTF8String@@XZ   @3188
   ?get_paramtags@DjVuAnno@@QBE?AVGUTF8String@@XZ   @3189
   ?get_string@GLObject@@QBE?AVGUTF8String@@XZ   @3190
   ?get_symbol@GLObject@@QBE?AVGUTF8String@@XZ   @3191
   ?get_token@GLParser@@AAE?AVGLToken@@AAPBD@Z   @3192
   ?get_type@GLObject@@QBE?AW4GLObjectType@1@XZ   @3193
   ?get_ver_align@DjVuANT@@CA?AW4alignment@1@AAVGLParser@@@Z   @3194
   ?get_xmlmap@DjVuANT@@QBE?AVGUTF8String@@ABV2@H@Z   @3195
   ?get_xmlmap@DjVuAnno@@QBE?AVGUTF8String@@ABV2@H@Z   @3196
   ?get_zoom@DjVuANT@@CAHAAVGLParser@@@Z   @3197
   ?is_empty@DjVuANT@@QBE_NXZ   @3198
   ?isempty@?$GMapTemplate@VGUTF8String@@V1@V1@@@QBE_NXZ   @3199
   ?merge@DjVuANT@@QAEXAAVByteStream@@@Z   @3200
   ?merge@DjVuAnno@@QAEXABV?$GP@VDjVuAnno@@@@@Z   @3201
   ?parse@GLParser@@AAEXPBDAAV?$GPList@VGLObject@@@@AAPBD@Z   @3202
   ?parse@GLParser@@QAEXPBD@Z   @3203
   ?print@GLObject@@QBEXAAVByteStream@@HHPAH@Z   @3204
   ?print@GLParser@@QAEXAAVByteStream@@H@Z   @3205
   ?read_raw@DjVuANT@@CA?AVGUTF8String@@AAVByteStream@@@Z   @3206
   ?size@?$GListTemplate@V?$GP@VGLObject@@@@VGPBase@@@@QBEHXZ   @3207
   ?skip_white_space@GLParser@@AAEXAAPBD@Z   @3208
   ?throw_can_not_convert_to@GLObject@@ABEXW4GLObjectType@1@@Z   @3209
   ?writeMap@DjVuANT@@QBEXAAVByteStream@@ABVGUTF8String@@H@Z   @3210
   ?writeMap@DjVuAnno@@QBEXAAVByteStream@@ABVGUTF8String@@H@Z   @3211
   ?writeParam@DjVuANT@@QBEXAAVByteStream@@@Z   @3212
   ?writeParam@DjVuAnno@@QBEXAAVByteStream@@@Z   @3213
   ??0?$GListTemplate@V?$GP@VDjVuBookMark@DjVmNav@@@@VGPBase@@@@QAE@XZ   @3214
   ??0?$GP@VDjVmNav@@@@QAE@PAVDjVmNav@@@Z   @3215
   ??0?$GP@VDjVuBookMark@DjVmNav@@@@QAE@ABV0@@Z   @3216
   ??0?$GP@VDjVuBookMark@DjVmNav@@@@QAE@PAVDjVuBookMark@DjVmNav@@@Z   @3217
   ??0?$GP@VDjVuBookMark@DjVmNav@@@@QAE@XZ   @3218
   ??0?$GPList@VDjVuBookMark@DjVmNav@@@@QAE@XZ   @3219
   ??0DjVmNav@@IAE@XZ   @3220
   ??0DjVuBookMark@DjVmNav@@IAE@XZ   @3221
   ??1?$GListTemplate@V?$GP@VDjVuBookMark@DjVmNav@@@@VGPBase@@@@QAE@XZ   @3222
   ??1?$GP@VDjVuBookMark@DjVmNav@@@@QAE@XZ   @3223
   ??1?$GPList@VDjVuBookMark@DjVmNav@@@@QAE@XZ   @3224
   ??1DjVmNav@@UAE@XZ   @3225
   ??1DjVuBookMark@DjVmNav@@UAE@XZ   @3226
   ??4?$GP@VDjVuBookMark@DjVmNav@@@@QAEAAV0@ABV0@@Z   @3227
   ??4?$GP@VDjVuBookMark@DjVmNav@@@@QAEAAV0@PAVDjVuBookMark@DjVmNav@@@Z   @3228
   ??A?$GListTemplate@V?$GP@VDjVuBookMark@DjVmNav@@@@VGPBase@@@@QAEAAV?$GP@VDjVuBookMark@DjVmNav@@@@VGPosition@@@Z   @3229
   ??B?$GListTemplate@V?$GP@VDjVuBookMark@DjVmNav@@@@VGPBase@@@@QBE?AVGPosition@@XZ   @3230
   ??B?$GP@VDjVuBookMark@DjVmNav@@@@QBEPAVDjVuBookMark@DjVmNav@@XZ   @3231
   ??C?$GP@VDjVuBookMark@DjVmNav@@@@QBEPAVDjVuBookMark@DjVmNav@@XZ   @3232
   ?append@?$GListTemplate@V?$GP@VDjVuBookMark@DjVmNav@@@@VGPBase@@@@QAEXABV?$GP@VDjVuBookMark@DjVmNav@@@@@Z   @3233
   ?append@DjVmNav@@QAEXABV?$GP@VDjVuBookMark@DjVmNav@@@@@Z   @3234
   ?create@DjVmNav@@SA?AV?$GP@VDjVmNav@@@@XZ   @3235
   ?create@DjVuBookMark@DjVmNav@@SA?AV?$GP@VDjVuBookMark@DjVmNav@@@@GABVGUTF8String@@0@Z   @3236
   ?create@DjVuBookMark@DjVmNav@@SA?AV?$GP@VDjVuBookMark@DjVmNav@@@@XZ   @3237
   ?decode@DjVmNav@@QAEXABV?$GP@VByteStream@@@@@Z   @3238
   ?decode@DjVuBookMark@DjVmNav@@QAEXABV?$GP@VByteStream@@@@@Z   @3239
   ?dump@DjVmNav@@QAEXABV?$GP@VByteStream@@@@@Z   @3240
   ?dump@DjVuBookMark@DjVmNav@@QAEXABV?$GP@VByteStream@@@@@Z   @3241
   ?empty@?$GListTemplate@V?$GP@VDjVuBookMark@DjVmNav@@@@VGPBase@@@@QAEXXZ   @3242
   ?encode@DjVmNav@@QAEXABV?$GP@VByteStream@@@@@Z   @3243
   ?encode@DjVuBookMark@DjVmNav@@QAEXABV?$GP@VByteStream@@@@@Z   @3244
   ?firstpos@?$GListTemplate@V?$GP@VDjVuBookMark@DjVmNav@@@@VGPBase@@@@QBE?AVGPosition@@XZ   @3245
   ?getBookMark@DjVmNav@@QAE_NAAV?$GP@VDjVuBookMark@DjVmNav@@@@H@Z   @3246
   ?getBookMarkCount@DjVmNav@@QAEHXZ   @3247
   ?get_tree@DjVmNav@@QAEHHPAHH@Z   @3248
   ?isValidBookmark@DjVmNav@@QAE_NXZ   @3249
   ?nth@?$GListTemplate@V?$GP@VDjVuBookMark@DjVmNav@@@@VGPBase@@@@QBE?AVGPosition@@I@Z   @3250
   ?size@?$GListTemplate@V?$GP@VDjVuBookMark@DjVmNav@@@@VGPBase@@@@QBEHXZ   @3251
   ??0?$GP@VDjVmDoc@@@@QAE@PAVDjVmDoc@@@Z   @3252
   ??0DjVmDoc@@IAE@XZ   @3253
   ??1DjVmDoc@@UAE@XZ   @3254
   ??4?$GPList@VFile@DjVmDir@@@@QAEAAV0@ABV0@@Z   @3255
   ??D?$GP@VDjVmDir@@@@QBEAAVDjVmDir@@XZ   @3256
   ?contains@?$GMapTemplate@VGUTF8String@@V?$GP@VDataPool@@@@VGPBase@@@@QBE?AVGPosition@@ABVGUTF8String@@AAV2@@Z   @3257
   ?create@DjVmDoc@@SA?AV?$GP@VDjVmDoc@@@@XZ   @3258
   ?del@?$GMapTemplate@VGUTF8String@@V?$GP@VDataPool@@@@VGPBase@@@@QAEXABVGUTF8String@@@Z   @3259
   ?delete_file@DjVmDoc@@QAEXABVGUTF8String@@@Z   @3260
   ?expand@DjVmDoc@@QAEXABVGURL@@ABVGUTF8String@@@Z   @3261
   ?get_data@DjVmDoc@@QBE?AV?$GP@VDataPool@@@@ABVGUTF8String@@@Z   @3262
   ?init@DjVmDoc@@IAEXXZ   @3263
   ?insert_file@DjVmDoc@@QAEXAAVByteStream@@W4FILE_TYPE@File@DjVmDir@@ABVGUTF8String@@22H@Z   @3264
   ?insert_file@DjVmDoc@@QAEXABV?$GP@VDataPool@@@@W4FILE_TYPE@File@DjVmDir@@ABVGUTF8String@@22H@Z   @3265
   ?insert_file@DjVmDoc@@QAEXABV?$GP@VFile@DjVmDir@@@@V?$GP@VDataPool@@@@H@Z   @3266
   ?read@DjVmDoc@@QAEXAAVByteStream@@@Z   @3267
   ?read@DjVmDoc@@QAEXABV?$GP@VDataPool@@@@@Z   @3268
   ?read@DjVmDoc@@QAEXABVGURL@@@Z   @3269
   ?save_file@DjVmDoc@@ABEXABVGURL@@ABVFile@DjVmDir@@PAV?$GMap@VGUTF8String@@V1@@@@Z   @3270
   ?save_file@DjVmDoc@@QBE?AVGUTF8String@@ABVGURL@@ABVFile@DjVmDir@@AAV?$GMap@VGUTF8String@@V1@@@ABV?$GP@VDataPool@@@@@Z   @3271
   ?save_file@DjVmDoc@@QBEXABVGURL@@ABVFile@DjVmDir@@@Z   @3272
   ?save_page@DjVmDoc@@QBEXABVGURL@@ABVFile@DjVmDir@@@Z   @3273
   ?save_page@DjVmDoc@@QBEXABVGURL@@ABVFile@DjVmDir@@AAV?$GMap@VGUTF8String@@V1@@@@Z   @3274
   ?set_djvm_nav@DjVmDoc@@QAEXV?$GP@VDjVmNav@@@@@Z   @3275
   ?write@DjVmDoc@@QAEXABV?$GP@VByteStream@@@@@Z   @3276
   ?write@DjVmDoc@@QAEXABV?$GP@VByteStream@@@@ABV?$GMap@VGUTF8String@@PAX@@@Z   @3277
   ?write_index@DjVmDoc@@QAEXABV?$GP@VByteStream@@@@@Z   @3278
   ??0?$GP@VFileRec@DjVmDir0@@@@QAE@PAVFileRec@DjVmDir0@@@Z   @3279
   ??0FileRec@DjVmDir0@@QAE@ABVGUTF8String@@_NHH@Z   @3280
   ??1FileRec@DjVmDir0@@UAE@XZ   @3281
   ??4?$GP@VFileRec@DjVmDir0@@@@QAEAAV0@ABV0@@Z   @3282
   ??A?$GArrayTemplate@V?$GP@VFileRec@DjVmDir0@@@@@@QAEAAV?$GP@VFileRec@DjVmDir0@@@@H@Z   @3283
   ??A?$GArrayTemplate@V?$GP@VFileRec@DjVmDir0@@@@@@QBEABV?$GP@VFileRec@DjVmDir0@@@@H@Z   @3284
   ??A?$GMapTemplate@VGUTF8String@@V?$GP@VFileRec@DjVmDir0@@@@V2@@@QAEAAV?$GP@VFileRec@DjVmDir0@@@@ABVGUTF8String@@@Z   @3285
   ?add_file@DjVmDir0@@QAEXABVGUTF8String@@_NHH@Z   @3286
   ?contains@?$GMapTemplate@VGUTF8String@@V?$GP@VFileRec@DjVmDir0@@@@V2@@@QBE?AVGPosition@@ABVGUTF8String@@@Z   @3287
   ?decode@DjVmDir0@@QAEXAAVByteStream@@@Z   @3288
   ?empty@?$GArrayTemplate@V?$GP@VFileRec@DjVmDir0@@@@@@QAEXXZ   @3289
   ?empty@?$GMapTemplate@VGUTF8String@@V?$GP@VFileRec@DjVmDir0@@@@V2@@@QAEXXZ   @3290
   ?encode@DjVmDir0@@QAEXAAVByteStream@@@Z   @3291
   ?get_file@DjVmDir0@@QAE?AV?$GP@VFileRec@DjVmDir0@@@@ABVGUTF8String@@@Z   @3292
   ?get_file@DjVmDir0@@QAE?AV?$GP@VFileRec@DjVmDir0@@@@H@Z   @3293
   ?get_or_create@?$GMapImpl@VGUTF8String@@V?$GP@VFileRec@DjVmDir0@@@@@@IAEPAUHNode@@ABVGUTF8String@@@Z   @3294
   ?get_size@DjVmDir0@@QBEHXZ   @3295
   ?resize@?$GArrayTemplate@V?$GP@VFileRec@DjVmDir0@@@@@@QAEXH@Z   @3296
   ??0?$GArrayTemplate@D@@QAE@ABUTraits@@@Z   @3297
   ??0?$GListTemplate@V?$GP@VFile@DjVmDir@@@@VGPBase@@@@QAE@ABV0@@Z   @3298
   ??0?$GMap@VGUTF8String@@V?$GPList@VFile@DjVmDir@@@@@@QAE@XZ   @3299
   ??0?$GMapImpl@VGUTF8String@@V?$GPList@VFile@DjVmDir@@@@@@IAE@XZ   @3300
   ??0?$GMapTemplate@VGUTF8String@@V?$GPList@VFile@DjVmDir@@@@V2@@@QAE@XZ   @3301
   ??0?$GPList@VFile@DjVmDir@@@@QAE@ABV0@@Z   @3302
   ??0?$GTArray@D@@QAE@XZ   @3303
   ??0?$MapNode@VGUTF8String@@V?$GPList@VFile@DjVmDir@@@@@@QAE@ABU0@@Z   @3304
   ??0?$MapNode@VGUTF8String@@V?$GPList@VFile@DjVmDir@@@@@@QAE@XZ   @3305
   ??0File@DjVmDir@@IAE@XZ   @3306
   ??0GNativeString@@QAE@ABVGUTF8String@@@Z   @3307
   ??0GUTF8String@@QAE@ABVGNativeString@@@Z   @3308
   ??1?$GArrayTemplate@D@@QAE@XZ   @3309
   ??1?$GMap@VGUTF8String@@V?$GPList@VFile@DjVmDir@@@@@@QAE@XZ   @3310
   ??1?$GMapImpl@VGUTF8String@@V?$GPList@VFile@DjVmDir@@@@@@QAE@XZ   @3311
   ??1?$GMapTemplate@VGUTF8String@@V?$GPList@VFile@DjVmDir@@@@V2@@@QAE@XZ   @3312
   ??1?$GTArray@D@@QAE@XZ   @3313
   ??1?$MapNode@VGUTF8String@@V?$GPList@VFile@DjVmDir@@@@@@QAE@XZ   @3314
   ??8?$GP@VFile@DjVmDir@@@@QBEHPAVFile@DjVmDir@@@Z   @3315
   ??A?$GArrayTemplate@V?$GP@VFile@DjVmDir@@@@@@QAEAAV?$GP@VFile@DjVmDir@@@@H@Z   @3316
   ??A?$GArrayTemplate@V?$GP@VFile@DjVmDir@@@@@@QBEABV?$GP@VFile@DjVmDir@@@@H@Z   @3317
   ??A?$GMapTemplate@VGUTF8String@@V?$GP@VFile@DjVmDir@@@@VGPBase@@@@QAEAAV?$GP@VFile@DjVmDir@@@@ABVGPosition@@@Z   @3318
   ??A?$GMapTemplate@VGUTF8String@@V?$GP@VFile@DjVmDir@@@@VGPBase@@@@QAEAAV?$GP@VFile@DjVmDir@@@@ABVGUTF8String@@@Z   @3319
   ??A?$GMapTemplate@VGUTF8String@@V?$GP@VFile@DjVmDir@@@@VGPBase@@@@QBEABV?$GP@VFile@DjVmDir@@@@ABVGPosition@@@Z   @3320
   ??A?$GMapTemplate@VGUTF8String@@V?$GPList@VFile@DjVmDir@@@@V2@@@QAEAAV?$GPList@VFile@DjVmDir@@@@ABVGPosition@@@Z   @3321
   ??A?$GMapTemplate@VGUTF8String@@V?$GPList@VFile@DjVmDir@@@@V2@@@QAEAAV?$GPList@VFile@DjVmDir@@@@ABVGUTF8String@@@Z   @3322
   ??B?$GArrayTemplate@D@@QAEPADXZ   @3323
   ??B?$GMapTemplate@VGUTF8String@@V?$GPList@VFile@DjVmDir@@@@V2@@@QBE?AVGPosition@@XZ   @3324
   ?append@?$GListTemplate@V?$GP@VFile@DjVmDir@@@@VGPBase@@@@QAEXABV?$GP@VFile@DjVmDir@@@@@Z   @3325
   ?check_save_name@File@DjVmDir@@QAEABVGUTF8String@@_N@Z   @3326
   ?contains@?$GMapTemplate@VGUTF8String@@V?$GP@VFile@DjVmDir@@@@VGPBase@@@@QBE?AVGPosition@@ABVGUTF8String@@@Z   @3327
   ?contains@?$GMapTemplate@VGUTF8String@@V?$GP@VFile@DjVmDir@@@@VGPBase@@@@QBE?AVGPosition@@ABVGUTF8String@@AAV2@@Z   @3328
   ?contains@?$GMapTemplate@VGUTF8String@@V?$GPList@VFile@DjVmDir@@@@V2@@@QBE?AVGPosition@@ABVGUTF8String@@@Z   @3329
   ?copy@?$NormTraits@U?$MapNode@VGUTF8String@@V?$GPList@VFile@DjVmDir@@@@@@@@SAXPAXPBXHH@Z   @3330
   ?create@File@DjVmDir@@SA?AV?$GP@VFile@DjVmDir@@@@ABVGUTF8String@@00W4FILE_TYPE@12@@Z   @3331
   ?decode@DjVmDir@@QAEXABV?$GP@VByteStream@@@@@Z   @3332
   ?del@?$GListTemplate@V?$GP@VFile@DjVmDir@@@@VGPBase@@@@QAEXAAVGPosition@@@Z   @3333
   ?del@?$GMapTemplate@VGUTF8String@@V?$GP@VFile@DjVmDir@@@@VGPBase@@@@QAEXABVGUTF8String@@@Z   @3334
   ?delete_file@DjVmDir@@QAEXABVGUTF8String@@@Z   @3335
   ?empty@?$GListTemplate@V?$GP@VFile@DjVmDir@@@@VGPBase@@@@QAEXXZ   @3336
   ?empty@?$GMapTemplate@VGUTF8String@@V?$GP@VFile@DjVmDir@@@@VGPBase@@@@QAEXXZ   @3337
   ?encode@DjVmDir@@QBEXABV?$GP@VByteStream@@@@_N1@Z   @3338
   ?encode@DjVmDir@@QBEXABV?$GP@VByteStream@@@@_N@Z   @3339
   ?fini@?$NormTraits@U?$MapNode@VGUTF8String@@V?$GPList@VFile@DjVmDir@@@@@@@@SAXPAXH@Z   @3340
   ?firstpos@?$GMapTemplate@VGUTF8String@@V?$GPList@VFile@DjVmDir@@@@V2@@@QBE?AVGPosition@@XZ   @3341
   ?get_file_pos@DjVmDir@@QBEHPBVFile@1@@Z   @3342
   ?get_files_list@DjVmDir@@QBE?AV?$GPList@VFile@DjVmDir@@@@XZ   @3343
   ?get_files_num@DjVmDir@@QBEHXZ   @3344
   ?get_or_create@?$GMapImpl@VGUTF8String@@V?$GPList@VFile@DjVmDir@@@@@@IAEPAUHNode@@ABVGUTF8String@@@Z   @3345
   ?get_page_pos@DjVmDir@@QBEHH@Z   @3346
   ?get_pages_num@DjVmDir@@QBEHXZ   @3347
   ?get_save_name@File@DjVmDir@@QBEABVGUTF8String@@XZ   @3348
   ?get_shared_anno_file@DjVmDir@@QBE?AV?$GP@VFile@DjVmDir@@@@XZ   @3349
   ?get_str_type@File@DjVmDir@@QBE?AVGUTF8String@@XZ   @3350
   ?id_to_file@DjVmDir@@QBE?AV?$GP@VFile@DjVmDir@@@@ABVGUTF8String@@@Z   @3351
   ?init@?$NormTraits@U?$MapNode@VGUTF8String@@V?$GPList@VFile@DjVmDir@@@@@@@@SAXPAXH@Z   @3352
   ?insert_before@?$GListTemplate@V?$GP@VFile@DjVmDir@@@@VGPBase@@@@QAEXVGPosition@@ABV?$GP@VFile@DjVmDir@@@@@Z   @3353
   ?insert_file@DjVmDir@@QAEHABV?$GP@VFile@DjVmDir@@@@H@Z   @3354
   ?is_shared_anno@File@DjVmDir@@QBE_NXZ   @3355
   ?key@?$GMapTemplate@VGUTF8String@@V?$GPList@VFile@DjVmDir@@@@V2@@@QBEABVGUTF8String@@ABVGPosition@@@Z   @3356
   ?lea@?$NormTraits@U?$MapNode@VGUTF8String@@V?$GPList@VFile@DjVmDir@@@@@@@@SAPAXPAXH@Z   @3357
   ?name_to_file@DjVmDir@@QBE?AV?$GP@VFile@DjVmDir@@@@ABVGUTF8String@@@Z   @3358
   ?nextChar@GBaseString@@QBEHH@Z   @3359
   ?page_to_file@DjVmDir@@QBE?AV?$GP@VFile@DjVmDir@@@@H@Z   @3360
   ?pos_to_file@DjVmDir@@QBE?AV?$GP@VFile@DjVmDir@@@@HPAH@Z   @3361
   ?resize@?$GArrayTemplate@D@@QAEXH@Z   @3362
   ?resize@?$GArrayTemplate@V?$GP@VFile@DjVmDir@@@@@@QAEXH@Z   @3363
   ?resolve_duplicates@DjVmDir@@QAE?AV?$GPList@VFile@DjVmDir@@@@_N@Z   @3364
   ?set_file_name@DjVmDir@@QAEXABVGUTF8String@@0@Z   @3365
   ?set_file_title@DjVmDir@@QAEXABVGUTF8String@@0@Z   @3366
   ?set_load_name@File@DjVmDir@@QAEXABVGUTF8String@@@Z   @3367
   ?set_save_name@File@DjVmDir@@IAEXABVGUTF8String@@@Z   @3368
   ?set_title@File@DjVmDir@@QAEXABVGUTF8String@@@Z   @3369
   ?size@?$GArrayTemplate@D@@QBEHXZ   @3370
   ?size@?$GArrayTemplate@V?$GP@VFile@DjVmDir@@@@@@QBEHXZ   @3371
   ?theTraits@?1??traits@?$NormTraits@U?$MapNode@VGUTF8String@@V?$GPList@VFile@DjVmDir@@@@@@@@SAABUTraits@@XZ@4U3@B   @3372
   ?title_to_file@DjVmDir@@QBE?AV?$GP@VFile@DjVmDir@@@@ABVGUTF8String@@@Z   @3373
   ?traits@?$NormTraits@U?$MapNode@VGUTF8String@@V?$GPList@VFile@DjVmDir@@@@@@@@SAABUTraits@@XZ   @3374
   ?version@DjVmDir@@2HB   @3375
   ??0?$GListTemplate@V?$GP@VDataPool@@@@VGPBase@@@@QAE@ABV0@@Z   @3376
   ??0?$GListTemplate@V?$GP@VDataPool@@@@VGPBase@@@@QAE@XZ   @3377
   ??0?$GListTemplate@V?$GP@VOpenFiles_File@DataPool@@@@VGPBase@@@@QAE@XZ   @3378
   ??0?$GListTemplate@V?$GP@VReader@DataPool@@@@VGPBase@@@@QAE@XZ   @3379
   ??0?$GListTemplate@V?$GP@VTrigger@DataPool@@@@VGPBase@@@@QAE@XZ   @3380
   ??0?$GMap@VGURL@@V?$GPList@VDataPool@@@@@@QAE@XZ   @3381
   ??0?$GMapImpl@VGURL@@V?$GPList@VDataPool@@@@@@IAE@XZ   @3382
   ??0?$GMapTemplate@VGURL@@V?$GPList@VDataPool@@@@V2@@@QAE@XZ   @3383
   ??0?$GP@VFCPools@@@@QAE@XZ   @3384
   ??0?$GP@VOpenFiles@DataPool@@@@QAE@XZ   @3385
   ??0?$GP@VOpenFiles_File@DataPool@@@@QAE@ABV0@@Z   @3386
   ??0?$GP@VOpenFiles_File@DataPool@@@@QAE@XZ   @3387
   ??0?$GP@VReader@DataPool@@@@QAE@ABV0@@Z   @3388
   ??0?$GP@VReader@DataPool@@@@QAE@PAVReader@DataPool@@@Z   @3389
   ??0?$GP@VTrigger@DataPool@@@@QAE@ABV0@@Z   @3390
   ??0?$GP@VTrigger@DataPool@@@@QAE@PAVTrigger@DataPool@@@Z   @3391
   ??0?$GP@VTrigger@DataPool@@@@QAE@XZ   @3392
   ??0?$GPList@VDataPool@@@@QAE@ABV0@@Z   @3393
   ??0?$GPList@VDataPool@@@@QAE@XZ   @3394
   ??0?$GPList@VOpenFiles_File@DataPool@@@@QAE@XZ   @3395
   ??0?$GPList@VReader@DataPool@@@@QAE@XZ   @3396
   ??0?$GPList@VTrigger@DataPool@@@@QAE@XZ   @3397
   ??0?$MapNode@VGURL@@V?$GPList@VDataPool@@@@@@QAE@ABU0@@Z   @3398
   ??0?$MapNode@VGURL@@V?$GPList@VDataPool@@@@@@QAE@XZ   @3399
   ??0BlockList@DataPool@@QAE@XZ   @3400
   ??0Counter@DataPool@@QAE@XZ   @3401
   ??0DataPool@@IAE@XZ   @3402
   ??0FCPools@@QAE@XZ   @3403
   ??0Incrementor@DataPool@@QAE@AAVCounter@1@@Z   @3404
   ??0OpenFiles@DataPool@@QAE@XZ   @3405
   ??0OpenFiles_File@DataPool@@QAE@ABVGURL@@AAV?$GP@VDataPool@@@@@Z   @3406
   ??0PoolByteStream@@QAE@V?$GP@VDataPool@@@@@Z   @3407
   ??0Reader@DataPool@@QAE@HH@Z   @3408
   ??0Trigger@DataPool@@QAE@HHP6AXPAX@Z0@Z   @3409
   ??1?$GListTemplate@V?$GP@VDataPool@@@@VGPBase@@@@QAE@XZ   @3410
   ??1?$GListTemplate@V?$GP@VOpenFiles_File@DataPool@@@@VGPBase@@@@QAE@XZ   @3411
   ??1?$GListTemplate@V?$GP@VReader@DataPool@@@@VGPBase@@@@QAE@XZ   @3412
   ??1?$GListTemplate@V?$GP@VTrigger@DataPool@@@@VGPBase@@@@QAE@XZ   @3413
   ??1?$GMap@VGURL@@V?$GPList@VDataPool@@@@@@QAE@XZ   @3414
   ??1?$GMapImpl@VGURL@@V?$GPList@VDataPool@@@@@@QAE@XZ   @3415
   ??1?$GMapTemplate@VGURL@@V?$GPList@VDataPool@@@@V2@@@QAE@XZ   @3416
   ??1?$GP@VFCPools@@@@QAE@XZ   @3417
   ??1?$GP@VOpenFiles@DataPool@@@@QAE@XZ   @3418
   ??1?$GP@VOpenFiles_File@DataPool@@@@QAE@XZ   @3419
   ??1?$GP@VReader@DataPool@@@@QAE@XZ   @3420
   ??1?$GP@VTrigger@DataPool@@@@QAE@XZ   @3421
   ??1?$GPList@VDataPool@@@@QAE@XZ   @3422
   ??1?$GPList@VOpenFiles_File@DataPool@@@@QAE@XZ   @3423
   ??1?$GPList@VReader@DataPool@@@@QAE@XZ   @3424
   ??1?$GPList@VTrigger@DataPool@@@@QAE@XZ   @3425
   ??1?$MapNode@VGURL@@V?$GPList@VDataPool@@@@@@QAE@XZ   @3426
   ??1BlockList@DataPool@@QAE@XZ   @3427
   ??1Counter@DataPool@@QAE@XZ   @3428
   ??1DataPool@@UAE@XZ   @3429
   ??1FCPools@@UAE@XZ   @3430
   ??1Incrementor@DataPool@@QAE@XZ   @3431
   ??1OpenFiles@DataPool@@UAE@XZ   @3432
   ??1OpenFiles_File@DataPool@@UAE@XZ   @3433
   ??1PoolByteStream@@UAE@XZ   @3434
   ??1Reader@DataPool@@UAE@XZ   @3435
   ??1Trigger@DataPool@@UAE@XZ   @3436
   ??4?$GP@VFCPools@@@@QAEAAV0@PAVFCPools@@@Z   @3437
   ??4?$GP@VOpenFiles@DataPool@@@@QAEAAV0@PAVOpenFiles@DataPool@@@Z   @3438
   ??4?$GP@VOpenFiles_File@DataPool@@@@QAEAAV0@ABV0@@Z   @3439
   ??4?$GP@VOpenFiles_File@DataPool@@@@QAEAAV0@PAVOpenFiles_File@DataPool@@@Z   @3440
   ??4?$GP@VTrigger@DataPool@@@@QAEAAV0@ABV0@@Z   @3441
   ??4?$GPList@VDataPool@@@@QAEAAV0@ABV0@@Z   @3442
   ??7?$GP@VFCPools@@@@QBEHXZ   @3443
   ??7?$GP@VOpenFiles@DataPool@@@@QBEHXZ   @3444
   ??7?$GP@VOpenFiles_File@DataPool@@@@QBEHXZ   @3445
   ??8?$GP@VTrigger@DataPool@@@@QBEHPAVTrigger@DataPool@@@Z   @3446
   ??8GPBase@@QBEHABV0@@Z   @3447
   ??9@YA_NPBDABVGBaseString@@@Z   @3448
   ??A?$GListTemplate@V?$GP@VDataPool@@@@VGPBase@@@@QAEAAV?$GP@VDataPool@@@@VGPosition@@@Z   @3449
   ??A?$GListTemplate@V?$GP@VOpenFiles_File@DataPool@@@@VGPBase@@@@QAEAAV?$GP@VOpenFiles_File@DataPool@@@@VGPosition@@@Z   @3450
   ??A?$GListTemplate@V?$GP@VReader@DataPool@@@@VGPBase@@@@QAEAAV?$GP@VReader@DataPool@@@@VGPosition@@@Z   @3451
   ??A?$GListTemplate@V?$GP@VTrigger@DataPool@@@@VGPBase@@@@QAEAAV?$GP@VTrigger@DataPool@@@@VGPosition@@@Z   @3452
   ??A?$GMapTemplate@VGURL@@V?$GPList@VDataPool@@@@V2@@@QAEAAV?$GPList@VDataPool@@@@ABVGPosition@@@Z   @3453
   ??A?$GMapTemplate@VGURL@@V?$GPList@VDataPool@@@@V2@@@QAEAAV?$GPList@VDataPool@@@@ABVGURL@@@Z   @3454
   ??B?$GListTemplate@V?$GP@VDataPool@@@@VGPBase@@@@QBE?AVGPosition@@XZ   @3455
   ??B?$GListTemplate@V?$GP@VOpenFiles_File@DataPool@@@@VGPBase@@@@QBE?AVGPosition@@XZ   @3456
   ??B?$GListTemplate@V?$GP@VReader@DataPool@@@@VGPBase@@@@QBE?AVGPosition@@XZ   @3457
   ??B?$GListTemplate@V?$GP@VTrigger@DataPool@@@@VGPBase@@@@QBE?AVGPosition@@XZ   @3458
   ??B?$GMapTemplate@VGURL@@V?$GPList@VDataPool@@@@V2@@@QBE?AVGPosition@@XZ   @3459
   ??B?$GP@VFCPools@@@@QBEPAVFCPools@@XZ   @3460
   ??B?$GP@VOpenFiles@DataPool@@@@QBEPAVOpenFiles@DataPool@@XZ   @3461
   ??B?$GP@VOpenFiles_File@DataPool@@@@QBEPAVOpenFiles_File@DataPool@@XZ   @3462
   ??B?$GP@VTrigger@DataPool@@@@QBEPAVTrigger@DataPool@@XZ   @3463
   ??BCounter@DataPool@@QBEHXZ   @3464
   ??C?$GP@VOpenFiles_File@DataPool@@@@QBEPAVOpenFiles_File@DataPool@@XZ   @3465
   ??C?$GP@VReader@DataPool@@@@QBEPAVReader@DataPool@@XZ   @3466
   ??C?$GP@VTrigger@DataPool@@@@QBEPAVTrigger@DataPool@@XZ   @3467
   ?Stop@DataPool@@2PBDB   @3468
   ?add_data@DataPool@@QAEXPBXH@Z   @3469
   ?add_data@DataPool@@QAEXPBXHH@Z   @3470
   ?add_pool@FCPools@@QAEXABVGURL@@V?$GP@VDataPool@@@@@Z   @3471
   ?add_pool@OpenFiles_File@DataPool@@QAEHAAV?$GP@VDataPool@@@@@Z   @3472
   ?add_range@BlockList@DataPool@@QAEXHH@Z   @3473
   ?add_trigger@DataPool@@QAEXHHP6AXPAX@Z0@Z   @3474
   ?add_trigger@DataPool@@QAEXHP6AXPAX@Z0@Z   @3475
   ?added_data@DataPool@@AAEXHH@Z   @3476
   ?analyze_iff@DataPool@@AAEXXZ   @3477
   ?append@?$GListTemplate@V?$GP@VDataPool@@@@VGPBase@@@@QAEXABV?$GP@VDataPool@@@@@Z   @3478
   ?append@?$GListTemplate@V?$GP@VOpenFiles_File@DataPool@@@@VGPBase@@@@QAEXABV?$GP@VOpenFiles_File@DataPool@@@@@Z   @3479
   ?append@?$GListTemplate@V?$GP@VReader@DataPool@@@@VGPBase@@@@QAEXABV?$GP@VReader@DataPool@@@@@Z   @3480
   ?append@?$GListTemplate@V?$GP@VTrigger@DataPool@@@@VGPBase@@@@QAEXABV?$GP@VTrigger@DataPool@@@@@Z   @3481
   ?check_triggers@DataPool@@AAEXXZ   @3482
   ?clean@FCPools@@QAEXXZ   @3483
   ?clear@BlockList@DataPool@@QAEXXZ   @3484
   ?clear_stream@DataPool@@QAEX_N@Z   @3485
   ?clear_stream@OpenFiles_File@DataPool@@QAEXXZ   @3486
   ?close_all@DataPool@@SAXXZ   @3487
   ?close_all@OpenFiles@DataPool@@QAEXXZ   @3488
   ?connect@DataPool@@QAEXABV?$GP@VDataPool@@@@HH@Z   @3489
   ?connect@DataPool@@QAEXABVGURL@@HH@Z   @3490
   ?contains@?$GListTemplate@V?$GP@VDataPool@@@@VGPBase@@@@QBE?AVGPosition@@ABV?$GP@VDataPool@@@@@Z   @3491
   ?contains@?$GMapTemplate@VGURL@@V?$GPList@VDataPool@@@@V2@@@QBE?AVGPosition@@ABVGURL@@@Z   @3492
   ?contains@?$GMapTemplate@VGURL@@V?$GPList@VDataPool@@@@V2@@@QBE?AVGPosition@@ABVGURL@@AAV2@@Z   @3493
   ?copy@?$NormTraits@U?$MapNode@VGURL@@V?$GPList@VDataPool@@@@@@@@SAXPAXPBXHH@Z   @3494
   ?create@DataPool@@SA?AV?$GP@VDataPool@@@@ABV2@HH@Z   @3495
   ?create@DataPool@@SA?AV?$GP@VDataPool@@@@ABV?$GP@VByteStream@@@@@Z   @3496
   ?create@DataPool@@SA?AV?$GP@VDataPool@@@@ABVGURL@@HH@Z   @3497
   ?create@DataPool@@SA?AV?$GP@VDataPool@@@@XZ   @3498
   ?dec@Counter@DataPool@@QAEXXZ   @3499
   ?del@?$GListTemplate@HH@@QAEXAAVGPosition@@@Z   @3500
   ?del@?$GListTemplate@V?$GP@VDataPool@@@@VGPBase@@@@QAEXAAVGPosition@@@Z   @3501
   ?del@?$GListTemplate@V?$GP@VOpenFiles_File@DataPool@@@@VGPBase@@@@QAEXAAVGPosition@@@Z   @3502
   ?del@?$GListTemplate@V?$GP@VReader@DataPool@@@@VGPBase@@@@QAEXAAVGPosition@@@Z   @3503
   ?del@?$GListTemplate@V?$GP@VTrigger@DataPool@@@@VGPBase@@@@QAEXAAVGPosition@@@Z   @3504
   ?del@?$GMapTemplate@VGURL@@V?$GPList@VDataPool@@@@V2@@@QAEXAAVGPosition@@@Z   @3505
   ?del_pool@FCPools@@QAEXABVGURL@@V?$GP@VDataPool@@@@@Z   @3506
   ?del_pool@OpenFiles_File@DataPool@@QAEHAAV?$GP@VDataPool@@@@@Z   @3507
   ?del_trigger@DataPool@@QAEXP6AXPAX@Z0@Z   @3508
   ?empty@?$GListTemplate@V?$GP@VDataPool@@@@VGPBase@@@@QAEXXZ   @3509
   ?empty@?$GListTemplate@V?$GP@VOpenFiles_File@DataPool@@@@VGPBase@@@@QAEXXZ   @3510
   ?empty@?$GListTemplate@V?$GP@VTrigger@DataPool@@@@VGPBase@@@@QAEXXZ   @3511
   ?fini@?$NormTraits@U?$MapNode@VGURL@@V?$GPList@VDataPool@@@@@@@@SAXPAXH@Z   @3512
   ?firstpos@?$GListTemplate@V?$GP@VDataPool@@@@VGPBase@@@@QBE?AVGPosition@@XZ   @3513
   ?firstpos@?$GListTemplate@V?$GP@VOpenFiles_File@DataPool@@@@VGPBase@@@@QBE?AVGPosition@@XZ   @3514
   ?firstpos@?$GListTemplate@V?$GP@VReader@DataPool@@@@VGPBase@@@@QBE?AVGPosition@@XZ   @3515
   ?firstpos@?$GListTemplate@V?$GP@VTrigger@DataPool@@@@VGPBase@@@@QBE?AVGPosition@@XZ   @3516
   ?firstpos@?$GMapTemplate@VGURL@@V?$GPList@VDataPool@@@@V2@@@QBE?AVGPosition@@XZ   @3517
   ?get@FCPools@@SAPAV1@XZ   @3518
   ?get@OpenFiles@DataPool@@SAPAV12@XZ   @3519
   ?get_bytes@BlockList@DataPool@@QBEHHH@Z   @3520
   ?get_data@DataPool@@AAEHPAXHHH@Z   @3521
   ?get_data@DataPool@@QAEHPAXHH@Z   @3522
   ?get_length@DataPool@@QBEHXZ   @3523
   ?get_or_create@?$GMapImpl@VGURL@@V?$GPList@VDataPool@@@@@@IAEPAUHNode@@ABVGURL@@@Z   @3524
   ?get_pool@FCPools@@QAE?AV?$GP@VDataPool@@@@ABVGURL@@HH@Z   @3525
   ?get_range@BlockList@DataPool@@QBEHHH@Z   @3526
   ?get_size@DataPool@@ABEHHH@Z   @3527
   ?get_stream@DataPool@@QAE?AV?$GP@VByteStream@@@@XZ   @3528
   ?global_ptr@FCPools@@0V?$GP@VFCPools@@@@A   @3529
   ?global_ptr@OpenFiles@DataPool@@0V?$GP@VOpenFiles@DataPool@@@@A   @3530
   ?has_data@DataPool@@QAE_NHH@Z   @3531
   ?inc@Counter@DataPool@@QAEXXZ   @3532
   ?init@?$NormTraits@U?$MapNode@VGURL@@V?$GPList@VDataPool@@@@@@@@SAXPAXH@Z   @3533
   ?init@DataPool@@AAEXXZ   @3534
   ?insert_after@?$GListTemplate@HH@@QAEXVGPosition@@ABH@Z   @3535
   ?isempty@?$GListTemplate@V?$GP@VDataPool@@@@VGPBase@@@@QBE_NXZ   @3536
   ?lea@?$NormTraits@U?$MapNode@VGURL@@V?$GPList@VDataPool@@@@@@@@SAPAXPAXH@Z   @3537
   ?load_file@DataPool@@QAEXXZ   @3538
   ?load_file@DataPool@@SAXABVGURL@@@Z   @3539
   ?load_file@FCPools@@QAEXABVGURL@@@Z   @3540
   ?prune@OpenFiles@DataPool@@QAEXXZ   @3541
   ?read@PoolByteStream@@UAEIPAXI@Z   @3542
   ?request_stream@OpenFiles@DataPool@@QAE?AV?$GP@VOpenFiles_File@DataPool@@@@ABVGURL@@V?$GP@VDataPool@@@@@Z   @3543
   ?restart_readers@DataPool@@AAEXXZ   @3544
   ?search@?$GListImpl@VGPBase@@@@IBEHABVGPBase@@AAVGPosition@@@Z   @3545
   ?search@?$GListTemplate@V?$GP@VDataPool@@@@VGPBase@@@@QBEHABV?$GP@VDataPool@@@@AAVGPosition@@@Z   @3546
   ?search@?$GListTemplate@V?$GP@VReader@DataPool@@@@VGPBase@@@@QBEHABV?$GP@VReader@DataPool@@@@AAVGPosition@@@Z   @3547
   ?seek@PoolByteStream@@UAEHJH_N@Z   @3548
   ?set_eof@DataPool@@QAEXXZ   @3549
   ?size@?$GListTemplate@V?$GP@VDataPool@@@@VGPBase@@@@QBEHXZ   @3550
   ?size@?$GListTemplate@V?$GP@VOpenFiles_File@DataPool@@@@VGPBase@@@@QBEHXZ   @3551
   ?static_trigger_cb@DataPool@@CAXPAX@Z   @3552
   ?stop@DataPool@@QAEX_N@Z   @3553
   ?stream_released@OpenFiles@DataPool@@QAEXAAV?$GP@VByteStream@@@@V?$GP@VDataPool@@@@@Z   @3554
   ?tell@PoolByteStream@@UBEJXZ   @3555
   ?theTraits@?1??traits@?$NormTraits@U?$MapNode@VGURL@@V?$GPList@VDataPool@@@@@@@@SAABUTraits@@XZ@4U3@B   @3556
   ?traits@?$NormTraits@U?$MapNode@VGURL@@V?$GPList@VDataPool@@@@@@@@SAABUTraits@@XZ   @3557
   ?trigger_cb@DataPool@@AAEXXZ   @3558
   ?wait_for_data@DataPool@@AAEXABV?$GP@VReader@DataPool@@@@@Z   @3559
   ?wake_up_all_readers@DataPool@@AAEXXZ   @3560
   ?write@PoolByteStream@@UAEIPBXI@Z   @3561
   ??0?$GPBuffer@PAD@@QAE@AAPAPADI@Z   @3562
   ??0Memory@ByteStream@@QAE@XZ   @3563
   ??0Static@ByteStream@@QAE@QBXI@Z   @3564
   ??0Stdio@ByteStream@@QAE@XZ   @3565
   ??1?$GPBuffer@PAD@@QAE@XZ   @3566
   ??1ByteStream@@UAE@XZ   @3567
   ??1Memory@ByteStream@@UAE@XZ   @3568
   ??1Static@ByteStream@@UAE@XZ   @3569
   ??1Stdio@ByteStream@@UAE@XZ   @3570
   ??1Wrapper@ByteStream@@UAE@XZ   @3571
   ?EndOfFile@ByteStream@@2PBDB   @3572
   ?copy@ByteStream@@QAEIAAV1@I@Z   @3573
   ?create@ByteStream@@SA?AV?$GP@VByteStream@@@@ABVGURL@@QBD@Z   @3574
   ?create@ByteStream@@SA?AV?$GP@VByteStream@@@@HQBD_N@Z   @3575
   ?create@ByteStream@@SA?AV?$GP@VByteStream@@@@QAU_iobuf@@QBD_N@Z   @3576
   ?create@ByteStream@@SA?AV?$GP@VByteStream@@@@QBD@Z   @3577
   ?create@ByteStream@@SA?AV?$GP@VByteStream@@@@QBXI@Z   @3578
   ?create@ByteStream@@SA?AV?$GP@VByteStream@@@@XZ   @3579
   ?create_static@ByteStream@@SA?AV?$GP@VByteStream@@@@PBXI@Z   @3580
   ?empty@Memory@ByteStream@@QAEXXZ   @3581
   ?flush@ByteStream@@UAEXXZ   @3582
   ?flush@Stdio@ByteStream@@UAEXXZ   @3583
   ?format@ByteStream@@QAAIPBDZZ   @3584
   ?formatmessage@ByteStream@@QAAXPBDZZ   @3585
   ?getAsNative@ByteStream@@QAE?AVGNativeString@@XZ   @3586
   ?getAsUTF8@ByteStream@@QAE?AVGUTF8String@@XZ   @3587
   ?get_stderr@ByteStream@@SA?AV?$GP@VByteStream@@@@PBD@Z   @3588
   ?get_stdin@ByteStream@@SA?AV?$GP@VByteStream@@@@PBD@Z   @3589
   ?get_stdout@ByteStream@@SA?AV?$GP@VByteStream@@@@PBD@Z   @3590
   ?init@Memory@ByteStream@@QAE?AVGUTF8String@@QBXI@Z   @3591
   ?init@Stdio@ByteStream@@QAE?AVGUTF8String@@ABVGURL@@QBD@Z   @3592
   ?init@Stdio@ByteStream@@QAE?AVGUTF8String@@QAU_iobuf@@QBD_N@Z   @3593
   ?init@Stdio@ByteStream@@QAE?AVGUTF8String@@QBD@Z   @3594
   ?read16@ByteStream@@QAEIXZ   @3595
   ?read24@ByteStream@@QAEIXZ   @3596
   ?read32@ByteStream@@QAEIXZ   @3597
   ?read8@ByteStream@@QAEIXZ   @3598
   ?read@ByteStream@@UAEIPAXI@Z   @3599
   ?read@Memory@ByteStream@@UAEIPAXI@Z   @3600
   ?read@Static@ByteStream@@UAEIPAXI@Z   @3601
   ?read@Stdio@ByteStream@@UAEIPAXI@Z   @3602
   ?readall@ByteStream@@QAEIPAXI@Z   @3603
   ?readat@Memory@ByteStream@@MAEIPAXIH@Z   @3604
   ?resize@?$GPBuffer@PAD@@QAEXI@Z   @3605
   ?scanf@ByteStream@@QAAHPBDZZ   @3606
   ?seek@ByteStream@@UAEHJH_N@Z   @3607
   ?seek@Memory@ByteStream@@UAEHJH_N@Z   @3608
   ?seek@Static@ByteStream@@UAEHJH_N@Z   @3609
   ?seek@Stdio@ByteStream@@UAEHJH_N@Z   @3610
   ?size@Memory@ByteStream@@UBEHXZ   @3611
   ?size@Static@ByteStream@@UBEHXZ   @3612
   ?tell@Memory@ByteStream@@UBEJXZ   @3613
   ?tell@Static@ByteStream@@UBEJXZ   @3614
   ?tell@Stdio@ByteStream@@UBEJXZ   @3615
   ?writall@ByteStream@@QAEIPBXI@Z   @3616
   ?write16@ByteStream@@QAEXI@Z   @3617
   ?write24@ByteStream@@QAEXI@Z   @3618
   ?write32@ByteStream@@QAEXI@Z   @3619
   ?write8@ByteStream@@QAEXI@Z   @3620
   ?write@ByteStream@@UAEIPBXI@Z   @3621
   ?write@Memory@ByteStream@@UAEIPBXI@Z   @3622
   ?write@Stdio@ByteStream@@UAEIPBXI@Z   @3623
   ?writemessage@ByteStream@@QAEXPBD@Z   @3624
   ?writestring@ByteStream@@QAEIABVGNativeString@@@Z   @3625
   ?writestring@ByteStream@@QAEIABVGUTF8String@@@Z   @3626
   ??0Encode@BSByteStream@@QAE@V?$GP@VByteStream@@@@@Z   @3627
   ??0_BSort@@QAE@PAEH@Z   @3628
   ??1Encode@BSByteStream@@UAE@XZ   @3629
   ??1_BSort@@QAE@XZ   @3630
   ?GT@_BSort@@AAEHHHH@Z   @3631
   ?GTD@_BSort@@AAEHHHH@Z   @3632
   ?create@BSByteStream@@SA?AV?$GP@VByteStream@@@@V2@H@Z   @3633
   ?encode@Encode@BSByteStream@@IAEIXZ   @3634
   ?encoder@ZPCodec@@QAEXH@Z   @3635
   ?flush@Encode@BSByteStream@@UAEXXZ   @3636
   ?init@Encode@BSByteStream@@QAEXH@Z   @3637
   ?pivot3d@_BSort@@AAEEPAEHH@Z   @3638
   ?pivot3r@_BSort@@AAEHPAHHH@Z   @3639
   ?quicksort3d@_BSort@@AAEXHHH@Z   @3640
   ?quicksort3r@_BSort@@AAEXHHH@Z   @3641
   ?radixsort16@_BSort@@AAEXXZ   @3642
   ?radixsort8@_BSort@@AAEXXZ   @3643
   ?ranksort@_BSort@@AAEXHHH@Z   @3644
   ?run@_BSort@@QAEXAAH@Z   @3645
   ?write@Encode@BSByteStream@@UAEIPBXI@Z   @3646
   ??0BSByteStream@@IAE@V?$GP@VByteStream@@@@@Z   @3647
   ??0Decode@BSByteStream@@QAE@V?$GP@VByteStream@@@@@Z   @3648
   ??1BSByteStream@@UAE@XZ   @3649
   ??1Decode@BSByteStream@@UAE@XZ   @3650
   ?create@BSByteStream@@SA?AV?$GP@VByteStream@@@@V2@@Z   @3651
   ?decode@Decode@BSByteStream@@IAEIXZ   @3652
   ?decoder@ZPCodec@@QAEHXZ   @3653
   ?flush@Decode@BSByteStream@@UAEXXZ   @3654
   ?init@Decode@BSByteStream@@QAEXXZ   @3655
   ?read@Decode@BSByteStream@@UAEIPAXI@Z   @3656
   ?tell@BSByteStream@@UBEJXZ   @3657
   ??0?$TArray@D@@QAE@HH@Z   @3658
   ??0ArrayRep@@QAE@ABV0@@Z   @3659
   ??0ArrayRep@@QAE@HP6AXPAXHH@Z1P6AX0HHPBXHH@Z3P6AX0HH2H@Z@Z   @3660
   ??0ArrayRep@@QAE@HP6AXPAXHH@Z1P6AX0HHPBXHH@Z3P6AX0HH2H@ZH@Z   @3661
   ??0ArrayRep@@QAE@HP6AXPAXHH@Z1P6AX0HHPBXHH@Z3P6AX0HH2H@ZHH@Z   @3662
   ??0_ArrayRep@@QAE@XZ   @3663
   ??1ArrayRep@@UAE@XZ   @3664
   ??1_ArrayRep@@UAE@XZ   @3665
   ??4ArrayRep@@QAEAAV0@ABV0@@Z   @3666
   ?del@ArrayRep@@QAEXHI@Z   @3667
   ?get_data@ByteStream@@QAE?AV?$TArray@D@@XZ   @3668
   ?ins@ArrayRep@@QAEXHPBXI@Z   @3669
   ?resize@ArrayRep@@QAEXHH@Z   @3670
   ?shift@ArrayRep@@QAEXH@Z   @3671
