LIBRARY   LIBDJVU
EXPORTS
   ??0?$GP@VByteStream@@@@QAE@ABV0@@Z   @1
   ??0Decode@ZPCodec@@QAE@V?$GP@VByteStream@@@@_N@Z   @2
   ??0Encode@ZPCodec@@QAE@V?$GP@VByteStream@@@@_N@Z   @3
   ??0ZPCodec@@IAE@V?$GP@VByteStream@@@@_N1@Z   @4
   ??1?$GP@VByteStream@@@@QAE@XZ   @5
   ??1?$GP@VZPCodec@@@@QAE@XZ   @6
   ??1Decode@ZPCodec@@UAE@XZ   @7
   ??1Encode@ZPCodec@@UAE@XZ   @8
   ??1ZPCodec@@UAE@XZ   @9
   ?create@ZPCodec@@SA?AV?$GP@VZPCodec@@@@V?$GP@VByteStream@@@@_N1@Z   @10
   ?decode_sub@ZPCodec@@IAEHAAEI@Z   @11
   ?decode_sub_nolearn@ZPCodec@@IAEHHI@Z   @12
   ?decode_sub_simple@ZPCodec@@IAEHHI@Z   @13
   ?eflush@ZPCodec@@IAEXXZ   @14
   ?encode_lps@ZPCodec@@IAEXAAEI@Z   @15
   ?encode_lps_nolearn@ZPCodec@@IAEXI@Z   @16
   ?encode_lps_simple@ZPCodec@@IAEXI@Z   @17
   ?encode_mps@ZPCodec@@IAEXAAEI@Z   @18
   ?encode_mps_nolearn@ZPCodec@@IAEXI@Z   @19
   ?encode_mps_simple@ZPCodec@@IAEXI@Z   @20
   ?init@Decode@ZPCodec@@AAEXXZ   @21
   ?init@Encode@ZPCodec@@AAEXXZ   @22
   ?newtable@ZPCodec@@QAEXPAUTable@1@@Z   @23
   ?outbit@ZPCodec@@IAEXH@Z   @24
   ?preload@ZPCodec@@IAEXXZ   @25
   ?state@ZPCodec@@QAEEM@Z   @26
   ?zemit@ZPCodec@@IAEXH@Z   @27
   ??0?$GListImpl@VGPBase@@@@IAE@XZ   @28
   ??0?$GListTemplate@V?$GP@Vlt_XMLTags@@@@VGPBase@@@@QAE@ABV0@@Z   @29
   ??0?$GP@VGStringRep@@@@QAE@XZ   @30
   ??0?$GPList@Vlt_XMLTags@@@@QAE@XZ   @31
   ??0?$GSetImpl@VGUTF8String@@@@IAE@ABUTraits@@@Z   @32
   ??0GPBase@@QAE@ABV0@@Z   @33
   ??0GPosition@@QAE@ABV0@@Z   @34
   ??0GUTF8String@@QAE@ABV0@@Z   @35
   ??0lt_XMLContents@@QAE@ABV0@@Z   @36
   ??0lt_XMLContents@@QAE@V?$GP@Vlt_XMLTags@@@@@Z   @37
   ??0lt_XMLContents@@QAE@XZ   @38
   ??0lt_XMLTags@@IAE@QBD@Z   @39
   ??0lt_XMLTags@@IAE@XZ   @40
   ??1?$GList@Vlt_XMLContents@@@@QAE@XZ   @41
   ??1?$GMap@VGUTF8String@@V1@@@QAE@XZ   @42
   ??1?$GMap@VGUTF8String@@V?$GPList@Vlt_XMLTags@@@@@@QAE@XZ   @43
   ??1?$GP@VGStringRep@@@@QAE@XZ   @44
   ??1?$GP@VXMLByteStream@@@@QAE@XZ   @45
   ??1?$GP@Vlt_XMLTags@@@@QAE@XZ   @46
   ??1?$GPList@Vlt_XMLTags@@@@QAE@XZ   @47
   ??1?$ListNode@VGPBase@@@@QAE@XZ   @48
   ??1?$ListNode@Vlt_XMLContents@@@@QAE@XZ   @49
   ??1?$MapNode@VGUTF8String@@V1@@@QAE@XZ   @50
   ??1?$MapNode@VGUTF8String@@V?$GPList@Vlt_XMLTags@@@@@@QAE@XZ   @51
   ??1?$SetNode@VGUTF8String@@@@QAE@XZ   @52
   ??1GPBase@@QAE@XZ   @53
   ??1lt_XMLContents@@QAE@XZ   @54
   ??1lt_XMLTags@@UAE@XZ   @55
   ??3@YAXPAX0@Z   @56
   ??A?$GListTemplate@V?$GP@Vlt_XMLTags@@@@VGPBase@@@@QAEAAV?$GP@Vlt_XMLTags@@@@VGPosition@@@Z   @57
   ??A?$GListTemplate@Vlt_XMLContents@@V1@@@QAEAAVlt_XMLContents@@VGPosition@@@Z   @58
   ??A?$GListTemplate@Vlt_XMLContents@@V1@@@QBEABVlt_XMLContents@@VGPosition@@@Z   @59
   ??BGBaseString@@QBEPBDXZ   @60
   ??C?$GP@Vlt_XMLTags@@@@QBEPAVlt_XMLTags@@XZ   @61
   ?CheckSubscript@GBaseString@@IBEHH@Z   @62
   ?ParseValues@lt_XMLTags@@SAXPBDAAV?$GMap@VGUTF8String@@V1@@@_N@Z   @63
   ?addraw@lt_XMLTags@@QAEXVGUTF8String@@@Z   @64
   ?addtag@lt_XMLTags@@QAEXV?$GP@Vlt_XMLTags@@@@@Z   @65
   ?check@GPosition@@QBEPBUNode@@PAX@Z   @66
   ?contains@lt_XMLTags@@QBE?AVGPosition@@VGUTF8String@@@Z   @67
   ?copy@?$NormTraits@U?$ListNode@VGPBase@@@@@@SAXPAXPBXHH@Z   @68
   ?copy@?$NormTraits@U?$ListNode@Vlt_XMLContents@@@@@@SAXPAXPBXHH@Z   @69
   ?copy@?$NormTraits@U?$MapNode@VGUTF8String@@V1@@@@@SAXPAXPBXHH@Z   @70
   ?copy@?$NormTraits@U?$MapNode@VGUTF8String@@V?$GPList@Vlt_XMLTags@@@@@@@@SAXPAXPBXHH@Z   @71
   ?downcase@GUTF8String@@QBE?AV1@XZ   @72
   ?fini@?$NormTraits@U?$ListNode@VGPBase@@@@@@SAXPAXH@Z   @73
   ?fini@?$NormTraits@U?$ListNode@Vlt_XMLContents@@@@@@SAXPAXH@Z   @74
   ?fini@?$NormTraits@U?$MapNode@VGUTF8String@@V1@@@@@SAXPAXH@Z   @75
   ?fini@?$NormTraits@U?$MapNode@VGUTF8String@@V?$GPList@Vlt_XMLTags@@@@@@@@SAXPAXH@Z   @76
   ?firstpos@GListBase@@QBE?AVGPosition@@XZ   @77
   ?get@?$GSetImpl@VGUTF8String@@@@IBEPAUHNode@@ABVGUTF8String@@@Z   @78
   ?get_Line@lt_XMLTags@@QBEHXZ   @79
   ?get_Maps@lt_XMLTags@@SAXQBD0V?$GPList@Vlt_XMLTags@@@@AAV?$GMap@VGUTF8String@@V?$GP@Vlt_XMLTags@@@@@@@Z   @80
   ?get_Tags@lt_XMLTags@@QBE?AV?$GPList@Vlt_XMLTags@@@@QBD@Z   @81
   ?get_or_create@?$GMapImpl@VGUTF8String@@V1@@@IAEPAUHNode@@ABVGUTF8String@@@Z   @82
   ?get_or_create@?$GMapImpl@VGUTF8String@@V?$GP@Vlt_XMLTags@@@@@@IAEPAUHNode@@ABVGUTF8String@@@Z   @83
   ?init@?$NormTraits@U?$ListNode@VGPBase@@@@@@SAXPAXH@Z   @84
   ?init@?$NormTraits@U?$ListNode@Vlt_XMLContents@@@@@@SAXPAXH@Z   @85
   ?init@?$NormTraits@U?$MapNode@VGUTF8String@@V1@@@@@SAXPAXH@Z   @86
   ?init@?$NormTraits@U?$MapNode@VGUTF8String@@V?$GPList@Vlt_XMLTags@@@@@@@@SAXPAXH@Z   @87
   ?init@GBaseString@@IAEXXZ   @88
   ?init@GUTF8String@@QAEAAV1@ABV?$GP@VGStringRep@@@@@Z   @89
   ?init@lt_XMLTags@@QAEXAAVXMLByteStream@@@Z   @90
   ?init@lt_XMLTags@@QAEXABV?$GP@VByteStream@@@@@Z   @91
   ?init@lt_XMLTags@@QAEXABVGURL@@@Z   @92
   ?lea@?$NormTraits@U?$ListNode@VGPBase@@@@@@SAPAXPAXH@Z   @93
   ?lea@?$NormTraits@U?$ListNode@Vlt_XMLContents@@@@@@SAPAXPAXH@Z   @94
   ?lea@?$NormTraits@U?$MapNode@VGUTF8String@@V1@@@@@SAPAXPAXH@Z   @95
   ?lea@?$NormTraits@U?$MapNode@VGUTF8String@@V?$GPList@Vlt_XMLTags@@@@@@@@SAPAXPAXH@Z   @96
   ?theTraits@?1??traits@?$NormTraits@U?$ListNode@VGPBase@@@@@@SAABUTraits@@XZ@4U3@B   @97
   ?theTraits@?1??traits@?$NormTraits@U?$ListNode@Vlt_XMLContents@@@@@@SAABUTraits@@XZ@4U3@B   @98
   ?theTraits@?1??traits@?$NormTraits@U?$MapNode@VGUTF8String@@V1@@@@@SAABUTraits@@XZ@4U3@B   @99
   ?theTraits@?1??traits@?$NormTraits@U?$MapNode@VGUTF8String@@V?$GPList@Vlt_XMLTags@@@@@@@@SAABUTraits@@XZ@4U3@B   @100
   ?toEscaped@GUTF8String@@QBE?AV1@_N@Z   @101
   ?upcase@GUTF8String@@QBE?AV1@XZ   @102
   ?write@lt_XMLContents@@QBEXAAVByteStream@@@Z   @103
   ?write@lt_XMLTags@@QBEXAAVByteStream@@_N@Z   @104
   ??0?$GListImpl@H@@IAE@XZ   @105
   ??0?$GListImpl@VGPBase@@@@QAE@ABV0@@Z   @106
   ??0?$GMapImpl@VGUTF8String@@V1@@@IAE@XZ   @107
   ??0?$GMapImpl@VGUTF8String@@V?$GP@VDjVuDocument@@@@@@IAE@XZ   @108
   ??0?$GMapImpl@VGUTF8String@@W4BorderType@GMapArea@@@@QAE@ABV0@@Z   @109
   ??0?$GMapTemplate@VGUTF8String@@V1@V1@@@QAE@ABV0@@Z   @110
   ??0?$GMapTemplate@VGUTF8String@@V?$GP@Vlt_XMLTags@@@@V2@@@QAE@XZ   @111
   ??0?$GMapTemplate@VGUTF8String@@W4BorderType@GMapArea@@W423@@@QAE@XZ   @112
   ??0?$GP@VDjVuInfo@@@@QAE@ABV0@@Z   @113
   ??0?$GP@VDjVuPort@@@@QAE@PAVDjVuPort@@@Z   @114
   ??0?$GP@VDjVuTXT@@@@QAE@ABV0@@Z   @115
   ??0?$GPList@Vlt_XMLTags@@@@QAE@ABV0@@Z   @116
   ??0GBaseString@@IAE@XZ   @117
   ??0Impl@lt_XMLParser@@QAE@XZ   @118
   ??0lt_XMLParser@@IAE@XZ   @119
   ??1?$ArrayBaseT@VGUTF8String@@@@UAE@XZ   @120
   ??1?$DArray@VGUTF8String@@@@UAE@XZ   @121
   ??1?$GList@H@@QAE@XZ   @122
   ??1?$GList@VGUTF8String@@@@QAE@XZ   @123
   ??1?$GMap@VGUTF8String@@V?$GP@VDjVuDocument@@@@@@QAE@XZ   @124
   ??1?$GMap@VGUTF8String@@V?$GP@VDjVuFile@@@@@@QAE@XZ   @125
   ??1?$GMap@VGUTF8String@@V?$GP@Vlt_XMLTags@@@@@@QAE@XZ   @126
   ??1?$GMap@VGUTF8String@@W4BorderType@GMapArea@@@@QAE@XZ   @127
   ??1?$GP@VDjVuANT@@@@QAE@XZ   @128
   ??1?$GP@VDjVuAnno@@@@QAE@XZ   @129
   ??1?$GP@VDjVuDocument@@@@QAE@XZ   @130
   ??1?$GP@VDjVuFile@@@@QAE@XZ   @131
   ??1?$GP@VDjVuImage@@@@QAE@XZ   @132
   ??1?$GP@VDjVuInfo@@@@QAE@XZ   @133
   ??1?$GP@VDjVuTXT@@@@QAE@XZ   @134
   ??1?$GP@VDjVuText@@@@QAE@XZ   @135
   ??1?$GP@VGMapArea@@@@QAE@XZ   @136
   ??1?$GP@VGMapOval@@@@QAE@XZ   @137
   ??1?$GP@VGMapPoly@@@@QAE@XZ   @138
   ??1?$GP@VGMapRect@@@@QAE@XZ   @139
   ??1?$MapNode@VGUTF8String@@V?$GP@VDjVuDocument@@@@@@QAE@XZ   @140
   ??1?$MapNode@VGUTF8String@@V?$GP@VDjVuFile@@@@@@QAE@XZ   @141
   ??1?$MapNode@VGUTF8String@@V?$GP@Vlt_XMLTags@@@@@@QAE@XZ   @142
   ??1?$MapNode@VGUTF8String@@W4BorderType@GMapArea@@@@QAE@XZ   @143
   ??1ArrayBase@@UAE@XZ   @144
   ??1DjVuAnno@@UAE@XZ   @145
   ??1DjVuInfo@@UAE@XZ   @146
   ??1DjVuTXT@@UAE@XZ   @147
   ??1DjVuText@@UAE@XZ   @148
   ??1GCriticalSection@@QAE@XZ   @149
   ??1GCriticalSectionLock@@QAE@XZ   @150
   ??1GURL@@UAE@XZ   @151
   ??1Impl@lt_XMLParser@@UAE@XZ   @152
   ??1UTF8@Filename@GURL@@UAE@XZ   @153
   ??1UTF8@GURL@@UAE@XZ   @154
   ??1lt_XMLParser@@MAE@XZ   @155
   ??A?$GListTemplate@HH@@QAEAAHVGPosition@@@Z   @156
   ??A?$GListTemplate@V?$GP@Vlt_XMLTags@@@@VGPBase@@@@QBEABV?$GP@Vlt_XMLTags@@@@VGPosition@@@Z   @157
   ??A?$GMapTemplate@VGUTF8String@@V1@V1@@@QAEAAVGUTF8String@@ABVGPosition@@@Z   @158
   ??A?$GMapTemplate@VGUTF8String@@V1@V1@@@QBEABVGUTF8String@@ABVGPosition@@@Z   @159
   ?ChangeAnno@Impl@lt_XMLParser@@IAEXHHAAVDjVuFile@@ABVlt_XMLTags@@@Z   @160
   ?ChangeInfo@Impl@lt_XMLParser@@IAEXAAVDjVuFile@@HN@Z   @161
   ?ChangeMeta@Impl@lt_XMLParser@@IAEXAAVDjVuFile@@ABVlt_XMLTags@@@Z   @162
   ?ChangeText@Impl@lt_XMLParser@@IAEXHHAAVDjVuFile@@ABVlt_XMLTags@@@Z   @163
   ?ChangeTextOCR@Impl@lt_XMLParser@@IAEXABVGUTF8String@@HHABV?$GP@VDjVuFile@@@@@Z   @164
   ?contains@?$GSetImpl@VGUTF8String@@@@QBE?AVGPosition@@ABVGUTF8String@@@Z   @165
   ?copy@?$NormTraits@U?$ListNode@H@@@@SAXPAXPBXHH@Z   @166
   ?copy@?$NormTraits@U?$MapNode@VGUTF8String@@V?$GP@VDjVuDocument@@@@@@@@SAXPAXPBXHH@Z   @167
   ?copy@?$NormTraits@U?$MapNode@VGUTF8String@@V?$GP@VDjVuFile@@@@@@@@SAXPAXPBXHH@Z   @168
   ?copy@?$NormTraits@U?$MapNode@VGUTF8String@@V?$GP@Vlt_XMLTags@@@@@@@@SAXPAXPBXHH@Z   @169
   ?copy@?$NormTraits@U?$MapNode@VGUTF8String@@W4BorderType@GMapArea@@@@@@SAXPAXPBXHH@Z   @170
   ?create@DjVuANT@@SA?AV?$GP@VDjVuANT@@@@XZ   @171
   ?create@DjVuAnno@@SA?AV?$GP@VDjVuAnno@@@@XZ   @172
   ?create@DjVuImage@@SA?AV?$GP@VDjVuImage@@@@ABV?$GP@VDjVuFile@@@@@Z   @173
   ?create@DjVuImage@@SA?AV?$GP@VDjVuImage@@@@XZ   @174
   ?create@DjVuTXT@@SA?AV?$GP@VDjVuTXT@@@@XZ   @175
   ?create@DjVuText@@SA?AV?$GP@VDjVuText@@@@XZ   @176
   ?create@GMapOval@@SA?AV?$GP@VGMapOval@@@@ABVGRect@@@Z   @177
   ?create@GMapPoly@@SA?AV?$GP@VGMapPoly@@@@XZ   @178
   ?create@GMapRect@@SA?AV?$GP@VGMapRect@@@@ABVGRect@@@Z   @179
   ?create@lt_XMLParser@@SA?AV?$GP@Vlt_XMLParser@@@@XZ   @180
   ?create@lt_XMLTags@@SA?AV?$GP@Vlt_XMLTags@@@@ABV?$GP@VByteStream@@@@@Z   @181
   ?empty@Impl@lt_XMLParser@@UAEXXZ   @182
   ?fini@?$NormTraits@U?$ListNode@H@@@@SAXPAXH@Z   @183
   ?fini@?$NormTraits@U?$MapNode@VGUTF8String@@V?$GP@VDjVuDocument@@@@@@@@SAXPAXH@Z   @184
   ?fini@?$NormTraits@U?$MapNode@VGUTF8String@@V?$GP@VDjVuFile@@@@@@@@SAXPAXH@Z   @185
   ?fini@?$NormTraits@U?$MapNode@VGUTF8String@@V?$GP@Vlt_XMLTags@@@@@@@@SAXPAXH@Z   @186
   ?fini@?$NormTraits@U?$MapNode@VGUTF8String@@W4BorderType@GMapArea@@@@@@SAXPAXH@Z   @187
   ?get_args@lt_XMLTags@@QBEABV?$GMap@VGUTF8String@@V1@@@XZ   @188
   ?get_content@lt_XMLTags@@QBEABV?$GList@Vlt_XMLContents@@@@XZ   @189
   ?get_file@Impl@lt_XMLParser@@IAE?AV?$GP@VDjVuFile@@@@ABVGURL@@VGUTF8String@@@Z   @190
   ?get_init_url@DjVuDocument@@QBE?AVGURL@@XZ   @191
   ?get_or_create@?$GMapImpl@VGUTF8String@@V?$GP@VDjVuDocument@@@@@@IAEPAUHNode@@ABVGUTF8String@@@Z   @192
   ?get_or_create@?$GMapImpl@VGUTF8String@@V?$GP@VDjVuFile@@@@@@IAEPAUHNode@@ABVGUTF8String@@@Z   @193
   ?get_or_create@?$GMapImpl@VGUTF8String@@W4BorderType@GMapArea@@@@IAEPAUHNode@@ABVGUTF8String@@@Z   @194
   ?init@?$NormTraits@U?$ListNode@H@@@@SAXPAXH@Z   @195
   ?init@?$NormTraits@U?$MapNode@VGUTF8String@@V?$GP@VDjVuDocument@@@@@@@@SAXPAXH@Z   @196
   ?init@?$NormTraits@U?$MapNode@VGUTF8String@@V?$GP@VDjVuFile@@@@@@@@SAXPAXH@Z   @197
   ?init@?$NormTraits@U?$MapNode@VGUTF8String@@V?$GP@Vlt_XMLTags@@@@@@@@SAXPAXH@Z   @198
   ?init@?$NormTraits@U?$MapNode@VGUTF8String@@W4BorderType@GMapArea@@@@@@SAXPAXH@Z   @199
   ?lea@?$NormTraits@U?$ListNode@H@@@@SAPAXPAXH@Z   @200
   ?lea@?$NormTraits@U?$MapNode@VGUTF8String@@V?$GP@VDjVuDocument@@@@@@@@SAPAXPAXH@Z   @201
   ?lea@?$NormTraits@U?$MapNode@VGUTF8String@@V?$GP@VDjVuFile@@@@@@@@SAPAXPAXH@Z   @202
   ?lea@?$NormTraits@U?$MapNode@VGUTF8String@@V?$GP@Vlt_XMLTags@@@@@@@@SAPAXPAXH@Z   @203
   ?lea@?$NormTraits@U?$MapNode@VGUTF8String@@W4BorderType@GMapArea@@@@@@SAPAXPAXH@Z   @204
   ?newnode@?$GListImpl@H@@KAPAUNode@@ABH@Z   @205
   ?page_to_id@DjVuDocument@@QBE?AVGUTF8String@@H@Z   @206
   ?parse@Impl@lt_XMLParser@@UAEXABV?$GP@VByteStream@@@@@Z   @207
   ?parse@Impl@lt_XMLParser@@UAEXABVlt_XMLTags@@@Z   @208
   ?parse_anno@Impl@lt_XMLParser@@IAEXHHABVlt_XMLTags@@AAV?$GMap@VGUTF8String@@V?$GP@Vlt_XMLTags@@@@@@AAVDjVuFile@@@Z   @209
   ?parse_meta@Impl@lt_XMLParser@@IAEXABVlt_XMLTags@@AAVDjVuFile@@@Z   @210
   ?parse_text@Impl@lt_XMLParser@@IAEXHHABVlt_XMLTags@@AAVDjVuFile@@@Z   @211
   ?save@Impl@lt_XMLParser@@UAEXXZ   @212
   ?search@?$GListImpl@VGUTF8String@@@@IBEHABVGUTF8String@@AAVGPosition@@@Z   @213
   ?setOCRcallback@lt_XMLParser@@SAXQAXQ6A?AV?$GP@VByteStream@@@@PAXABVGUTF8String@@ABV?$GP@VDjVuImage@@@@@Z@Z   @214
   ?theTraits@?1??traits@?$NormTraits@U?$ListNode@H@@@@SAABUTraits@@XZ@4U3@B   @215
   ?theTraits@?1??traits@?$NormTraits@U?$MapNode@VGUTF8String@@V?$GP@VDjVuDocument@@@@@@@@SAABUTraits@@XZ@4U3@B   @216
   ?theTraits@?1??traits@?$NormTraits@U?$MapNode@VGUTF8String@@V?$GP@VDjVuFile@@@@@@@@SAABUTraits@@XZ@4U3@B   @217
   ?theTraits@?1??traits@?$NormTraits@U?$MapNode@VGUTF8String@@V?$GP@Vlt_XMLTags@@@@@@@@SAABUTraits@@XZ@4U3@B   @218
   ?theTraits@?1??traits@?$NormTraits@U?$MapNode@VGUTF8String@@W4BorderType@GMapArea@@@@@@SAABUTraits@@XZ@4U3@B   @219
   ?url_to_id@DjVuDocument@@QBE?AVGUTF8String@@ABVGURL@@@Z   @220
   ??0UnicodeByteStream@@IAE@ABV0@@Z   @221
   ??0UnicodeByteStream@@IAE@V?$GP@VByteStream@@@@W4EncodeType@GStringRep@@@Z   @222
   ??0XMLByteStream@@IAE@AAV?$GP@VByteStream@@@@@Z   @223
   ??0XMLByteStream@@IAE@AAVUnicodeByteStream@@@Z   @224
   ??1?$GP@VUnicode@GStringRep@@@@QAE@XZ   @225
   ??1?$GPBuffer@D@@QAE@XZ   @226
   ??1UnicodeByteStream@@UAE@XZ   @227
   ??1XMLByteStream@@UAE@XZ   @228
   ??4UnicodeByteStream@@AAEAAV0@AAV0@@Z   @229
   ?create@XMLByteStream@@SA?AV?$GP@VXMLByteStream@@@@V?$GP@VByteStream@@@@@Z   @230
   ?flush@UnicodeByteStream@@UAEXXZ   @231
   ?get_remainder@GUTF8String@@QBE?AV?$GP@VUnicode@GStringRep@@@@XZ   @232
   ?gets@UnicodeByteStream@@UAE?AVGUTF8String@@IK_N@Z   @233
   ?init@XMLByteStream@@IAEXXZ   @234
   ?read@UnicodeByteStream@@UAEIPAXI@Z   @235
   ?readat@ByteStream@@UAEIPAXIH@Z   @236
   ?seek@UnicodeByteStream@@UAEHJH_N@Z   @237
   ?set_encodetype@UnicodeByteStream@@QAEXW4EncodeType@GStringRep@@@Z   @238
   ?set_encoding@UnicodeByteStream@@QAEXABVGUTF8String@@@Z   @239
   ?size@ByteStream@@UBEHXZ   @240
   ?tell@UnicodeByteStream@@UBEJXZ   @241
   ?write@UnicodeByteStream@@UAEIPBXI@Z   @242
   ?disable_mmx@MMXControl@@SAHXZ   @243
   ?enable_mmx@MMXControl@@SAHXZ   @244
   ?mmxflag@MMXControl@@2HA   @245
   ??0?$GArrayTemplate@V?$GP@VGBitmap@@@@@@QAE@ABUTraits@@HH@Z   @246
   ??0MMRDecoder@@IAE@HH@Z   @247
   ??0VLSource@MMRDecoder@@IAE@AAV?$GP@VByteStream@@@@@Z   @248
   ??0VLTable@MMRDecoder@@IAE@PBUVLCode@@@Z   @249
   ??1?$GP@VGBitmap@@@@QAE@XZ   @250
   ??1?$GP@VJB2Image@@@@QAE@XZ   @251
   ??1?$GP@VMMRDecoder@@@@QAE@XZ   @252
   ??1?$GP@VVLSource@MMRDecoder@@@@QAE@XZ   @253
   ??1?$GP@VVLTable@MMRDecoder@@@@QAE@XZ   @254
   ??1?$GPArray@VGBitmap@@@@QAE@XZ   @255
   ??1?$GPBuffer@E@@QAE@XZ   @256
   ??1?$GPBuffer@G@@QAE@XZ   @257
   ??1JB2Shape@@QAE@XZ   @258
   ??1MMRDecoder@@UAE@XZ   @259
   ??1VLSource@MMRDecoder@@UAE@XZ   @260
   ??1VLTable@MMRDecoder@@UAE@XZ   @261
   ?copy@?$NormTraits@VGPBase@@@@SAXPAXPBXHH@Z   @262
   ?create@GBitmap@@SA?AV?$GP@VGBitmap@@@@HHH@Z   @263
   ?create@JB2Image@@SA?AV?$GP@VJB2Image@@@@XZ   @264
   ?create@MMRDecoder@@SA?AV?$GP@VMMRDecoder@@@@V?$GP@VByteStream@@@@HH_N@Z   @265
   ?create@VLSource@MMRDecoder@@SA?AV?$GP@VVLSource@MMRDecoder@@@@AAV?$GP@VByteStream@@@@_N@Z   @266
   ?create@VLTable@MMRDecoder@@SA?AV?$GP@VVLTable@MMRDecoder@@@@QBUVLCode@@H@Z   @267
   ?decode@MMRDecoder@@SA?AV?$GP@VJB2Image@@@@V?$GP@VByteStream@@@@@Z   @268
   ?decode_header@MMRDecoder@@SA_NAAVByteStream@@AAH11@Z   @269
   ?fini@?$NormTraits@VGPBase@@@@SAXPAXH@Z   @270
   ?init@?$NormTraits@VGPBase@@@@SAXPAXH@Z   @271
   ?init@MMRDecoder@@IAEXV?$GP@VByteStream@@@@_N@Z   @272
   ?init@VLSource@MMRDecoder@@IAEX_N@Z   @273
   ?init@VLTable@MMRDecoder@@IAEXH@Z   @274
   ?lea@?$NormTraits@VGPBase@@@@SAPAXPAXH@Z   @275
   ?nextstripe@VLSource@MMRDecoder@@QAEXXZ   @276
   ?preload@VLSource@MMRDecoder@@QAEXXZ   @277
   ?scanrle@MMRDecoder@@QAEPBE_NPAPBE@Z   @278
   ?scanruns@MMRDecoder@@QAEPBGPAPBG@Z   @279
   ?shift@VLSource@MMRDecoder@@QAEXH@Z   @280
   ?theTraits@?1??traits@?$NormTraits@VGPBase@@@@SAABUTraits@@XZ@4U3@B   @281
   ??1?$GP@VGPixmap@@@@QAE@XZ   @282
   ??1?$GP@VJPEGImage@@@@QAE@XZ   @283
   ??1?$vector@DV?$allocator@D@std@@@std@@QAE@XZ   @284
   ??1JPEGImage@@UAE@XZ   @285
   ?_Destroy@?$vector@DV?$allocator@D@std@@@std@@IAEXPAD0@Z   @286
   ?copy@std@@YAPADPAD00@Z   @287
   ?create@GPixmap@@SA?AV?$GP@VGPixmap@@@@HHPBUGPixel@@@Z   @288
   ?create@JPEGImage@@SA?AV?$GP@VJPEGImage@@@@AAVByteStream@@@Z   @289
   ?get_pixmap@JPEGImage@@QAE?AV?$GP@VGPixmap@@@@XZ   @290
   ?insert@?$vector@DV?$allocator@D@std@@@std@@QAEXPADIABD@Z   @291
   ??0Decode@JB2Codec@JB2Dict@@QAE@XZ   @292
   ??0JB2Codec@JB2Dict@@IAE@_N@Z   @293
   ??0JB2Dict@@IAE@XZ   @294
   ??0JB2Image@@IAE@XZ   @295
   ??1?$GArray@VJB2Shape@@@@QAE@XZ   @296
   ??1?$GP@VJB2Dict@@@@QAE@XZ   @297
   ??1?$GPBuffer@I@@QAE@XZ   @298
   ??1?$GTArray@H@@QAE@XZ   @299
   ??1Decode@JB2Codec@JB2Dict@@UAE@XZ   @300
   ??1GMonitorLock@@QAE@XZ   @301
   ??1JB2Codec@JB2Dict@@UAE@XZ   @302
   ??1JB2Dict@@UAE@XZ   @303
   ??1JB2Image@@UAE@XZ   @304
   ??4JB2Shape@@QAEAAV0@ABV0@@Z   @305
   ??A?$GArrayTemplate@H@@QAEAAHH@Z   @306
   ??A?$GArrayTemplate@ULibRect@JB2Dict@@@@QAEAAULibRect@JB2Dict@@H@Z   @307
   ??A?$GArrayTemplate@VJB2Shape@@@@QAEAAVJB2Shape@@H@Z   @308
   ??A?$GArrayTemplate@VJB2Shape@@@@QBEABVJB2Shape@@H@Z   @309
   ??AGBitmap@@QAEPAEH@Z   @310
   ?CodeBit@Decode@JB2Codec@JB2Dict@@MAE_N_NAAE@Z   @311
   ?CodeNum@Decode@JB2Codec@JB2Dict@@IAEHHHAAI@Z   @312
   ?CodeNum@JB2Codec@JB2Dict@@IAEHHHPAIH@Z   @313
   ?add_blit@JB2Image@@QAEHABVJB2Blit@@@Z   @314
   ?add_library@JB2Codec@JB2Dict@@IAEHHAAVJB2Shape@@@Z   @315
   ?add_shape@JB2Dict@@QAEHABVJB2Shape@@@Z   @316
   ?code@Decode@JB2Codec@JB2Dict@@QAEXABV?$GP@VJB2Dict@@@@@Z   @317
   ?code@Decode@JB2Codec@JB2Dict@@QAEXABV?$GP@VJB2Image@@@@@Z   @318
   ?code_absolute_location@Decode@JB2Codec@JB2Dict@@MAEXPAVJB2Blit@@HH@Z   @319
   ?code_absolute_mark_size@Decode@JB2Codec@JB2Dict@@MAEXAAVGBitmap@@H@Z   @320
   ?code_bitmap_by_cross_coding@Decode@JB2Codec@JB2Dict@@MAEXAAVGBitmap@@0HHHHPAE1111@Z   @321
   ?code_bitmap_by_cross_coding@JB2Codec@JB2Dict@@IAEXAAVGBitmap@@AAV?$GP@VGBitmap@@@@H@Z   @322
   ?code_bitmap_directly@Decode@JB2Codec@JB2Dict@@MAEXAAVGBitmap@@HHPAE11@Z   @323
   ?code_bitmap_directly@JB2Codec@JB2Dict@@IAEXAAVGBitmap@@@Z   @324
   ?code_comment@Decode@JB2Codec@JB2Dict@@MAEXAAVGUTF8String@@@Z   @325
   ?code_image_size@Decode@JB2Codec@JB2Dict@@MAEXAAV3@@Z   @326
   ?code_image_size@Decode@JB2Codec@JB2Dict@@MAEXAAVJB2Image@@@Z   @327
   ?code_image_size@JB2Codec@JB2Dict@@MAEXAAV2@@Z   @328
   ?code_image_size@JB2Codec@JB2Dict@@MAEXAAVJB2Image@@@Z   @329
   ?code_inherited_shape_count@Decode@JB2Codec@JB2Dict@@MAEXAAV3@@Z   @330
   ?code_match_index@Decode@JB2Codec@JB2Dict@@MAEHAAHAAV3@@Z   @331
   ?code_record@JB2Codec@JB2Dict@@IAEXAAHABV?$GP@VJB2Dict@@@@PAVJB2Shape@@@Z   @332
   ?code_record@JB2Codec@JB2Dict@@IAEXAAHABV?$GP@VJB2Image@@@@PAVJB2Shape@@PAVJB2Blit@@@Z   @333
   ?code_record_type@Decode@JB2Codec@JB2Dict@@MAEXAAH@Z   @334
   ?code_relative_location@JB2Codec@JB2Dict@@IAEXPAVJB2Blit@@HH@Z   @335
   ?code_relative_mark_size@Decode@JB2Codec@JB2Dict@@MAEXAAVGBitmap@@HHH@Z   @336
   ?compress@JB2Dict@@QAEXXZ   @337
   ?compute_bounding_box@LibRect@JB2Dict@@QAEXABVGBitmap@@@Z   @338
   ?copy@?$NormTraits@VJB2Shape@@@@SAXPAXPBXHH@Z   @339
   ?copy@?$TrivTraits@$03@@SAXPAXPBXHH@Z   @340
   ?copy@?$TrivTraits@$07@@SAXPAXPBXHH@Z   @341
   ?copy@?$TrivTraits@$0BA@@@SAXPAXPBXHH@Z   @342
   ?create@GBitmap@@SA?AV?$GP@VGBitmap@@@@XZ   @343
   ?create@JB2Dict@@SA?AV?$GP@VJB2Dict@@@@XZ   @344
   ?decode@JB2Dict@@QAEXABV?$GP@VByteStream@@@@P6A?AV?$GP@VJB2Dict@@@@PAX@Z1@Z   @345
   ?decode@JB2Image@@QAEXABV?$GP@VByteStream@@@@P6A?AV?$GP@VJB2Dict@@@@PAX@Z1@Z   @346
   ?fini@?$NormTraits@VJB2Shape@@@@SAXPAXH@Z   @347
   ?fini@?$TrivTraits@$03@@SAXPAXH@Z   @348
   ?fini@?$TrivTraits@$07@@SAXPAXH@Z   @349
   ?fini@?$TrivTraits@$0BA@@@SAXPAXH@Z   @350
   ?get_bitmap@JB2Image@@QBE?AV?$GP@VGBitmap@@@@ABVGRect@@HHH@Z   @351
   ?get_bitmap@JB2Image@@QBE?AV?$GP@VGBitmap@@@@HH@Z   @352
   ?get_bounding_box@JB2Dict@@QAEXHAAULibRect@1@@Z   @353
   ?get_diff@Decode@JB2Codec@JB2Dict@@MAEHHAAI@Z   @354
   ?get_inherited_dict@JB2Dict@@QBE?AV?$GP@VJB2Dict@@@@XZ   @355
   ?get_memory_usage@JB2Dict@@QBEIXZ   @356
   ?get_memory_usage@JB2Image@@QBEIXZ   @357
   ?get_shape@JB2Dict@@QAEAAVJB2Shape@@H@Z   @358
   ?get_shape@JB2Dict@@QBEABVJB2Shape@@H@Z   @359
   ?init@?$NormTraits@VJB2Shape@@@@SAXPAXH@Z   @360
   ?init@?$TrivTraits@$03@@SAXPAXH@Z   @361
   ?init@?$TrivTraits@$07@@SAXPAXH@Z   @362
   ?init@?$TrivTraits@$0BA@@@SAXPAXH@Z   @363
   ?init@Decode@JB2Codec@JB2Dict@@QAEXABV?$GP@VByteStream@@@@@Z   @364
   ?init@JB2Dict@@QAEXXZ   @365
   ?init@JB2Image@@QAEXXZ   @366
   ?init_library@JB2Codec@JB2Dict@@IAEXAAV2@@Z   @367
   ?lea@?$NormTraits@VJB2Shape@@@@SAPAXPAXH@Z   @368
   ?lea@?$TrivTraits@$03@@SAPAXPAXH@Z   @369
   ?lea@?$TrivTraits@$07@@SAPAXPAXH@Z   @370
   ?lea@?$TrivTraits@$0BA@@@SAPAXPAXH@Z   @371
   ?reset_numcoder@JB2Codec@JB2Dict@@IAEXXZ   @372
   ?set_dict_callback@Decode@JB2Codec@JB2Dict@@QAEXP6A?AV?$GP@VJB2Dict@@@@PAX@Z0@Z   @373
   ?set_dimension@JB2Image@@QAEXHH@Z   @374
   ?set_inherited_dict@JB2Dict@@QAEXABV?$GP@VJB2Dict@@@@@Z   @375
   ?theTraits@?1??traits@?$NormTraits@VJB2Shape@@@@SAABUTraits@@XZ@4U3@B   @376
   ?theTraits@?1??traits@?$TrivTraits@$03@@SAABUTraits@@XZ@4U3@B   @377
   ?theTraits@?1??traits@?$TrivTraits@$07@@SAABUTraits@@XZ@4U3@B   @378
   ?theTraits@?1??traits@?$TrivTraits@$0BA@@@SAABUTraits@@XZ@4U3@B   @379
   ?touch@?$GArrayTemplate@ULibRect@JB2Dict@@@@QAEXH@Z   @380
   ?update_short_list@JB2Codec@JB2Dict@@IAEHH@Z   @381
   ??0Encode@JB2Codec@JB2Dict@@QAE@XZ   @382
   ??1Encode@JB2Codec@JB2Dict@@UAE@XZ   @383
   ?CodeBit@Encode@JB2Codec@JB2Dict@@MAE_N_NAAE@Z   @384
   ?CodeNum@Encode@JB2Codec@JB2Dict@@IAEXHHHAAI@Z   @385
   ?code@Encode@JB2Codec@JB2Dict@@QAEXABV?$GP@VJB2Dict@@@@@Z   @386
   ?code@Encode@JB2Codec@JB2Dict@@QAEXABV?$GP@VJB2Image@@@@@Z   @387
   ?code_absolute_location@Encode@JB2Codec@JB2Dict@@MAEXPAVJB2Blit@@HH@Z   @388
   ?code_absolute_mark_size@Encode@JB2Codec@JB2Dict@@MAEXAAVGBitmap@@H@Z   @389
   ?code_bitmap_by_cross_coding@Encode@JB2Codec@JB2Dict@@MAEXAAVGBitmap@@0HHHHPAE1111@Z   @390
   ?code_bitmap_directly@Encode@JB2Codec@JB2Dict@@MAEXAAVGBitmap@@HHPAE11@Z   @391
   ?code_comment@Encode@JB2Codec@JB2Dict@@MAEXAAVGUTF8String@@@Z   @392
   ?code_image_size@Encode@JB2Codec@JB2Dict@@MAEXAAV3@@Z   @393
   ?code_image_size@Encode@JB2Codec@JB2Dict@@MAEXAAVJB2Image@@@Z   @394
   ?code_inherited_shape_count@Encode@JB2Codec@JB2Dict@@MAEXAAV3@@Z   @395
   ?code_match_index@Encode@JB2Codec@JB2Dict@@MAEHAAHAAV3@@Z   @396
   ?code_record_type@Encode@JB2Codec@JB2Dict@@MAEXAAH@Z   @397
   ?code_relative_mark_size@Encode@JB2Codec@JB2Dict@@MAEXAAVGBitmap@@HHH@Z   @398
   ?encode@JB2Dict@@QBEXABV?$GP@VByteStream@@@@@Z   @399
   ?encode@JB2Image@@QBEXABV?$GP@VByteStream@@@@@Z   @400
   ?encode_libonly_shape@Encode@JB2Codec@JB2Dict@@IAEXABV?$GP@VJB2Image@@@@H@Z   @401
   ?get_diff@Encode@JB2Codec@JB2Dict@@MAEHHAAI@Z   @402
   ?init@Encode@JB2Codec@JB2Dict@@QAEXABV?$GP@VByteStream@@@@@Z   @403
   ??0Block@IW44Image@@QAE@XZ   @404
   ??0Codec@IW44Image@@IAE@AAVMap@1@@Z   @405
   ??0IW44Image@@IAE@XZ   @406
   ??0IWBitmap@@IAE@XZ   @407
   ??0IWEncoderParms@@QAE@XZ   @408
   ??0IWPixmap@@IAE@XZ   @409
   ??0Map@IW44Image@@QAE@HH@Z   @410
   ??1?$GPBuffer@F@@QAE@XZ   @411
   ??1Codec@IW44Image@@UAE@XZ   @412
   ??1Decode@Codec@IW44Image@@UAE@XZ   @413
   ??1IW44Image@@UAE@XZ   @414
   ??1IWBitmap@@UAE@XZ   @415
   ??1IWPixmap@@UAE@XZ   @416
   ??1Map@IW44Image@@QAE@XZ   @417
   ??_H@YGXPAXIHP6EX0@Z@Z   @418
   ?YCbCr_to_RGB@Decode@Transform@IW44Image@@SAXPAUGPixel@@HHH@Z   @419
   ?alloc@Map@IW44Image@@QAEPAFH@Z   @420
   ?allocp@Map@IW44Image@@QAEPAPAFH@Z   @421
   ?backward@Decode@Transform@IW44Image@@SAXPAFHHHHH@Z   @422
   ?close_codec@IWBitmap@@UAEXXZ   @423
   ?close_codec@IWPixmap@@UAEXXZ   @424
   ?code_slice@Decode@Codec@IW44Image@@UAEHAAVZPCodec@@@Z   @425
   ?create_decode@IW44Image@@SA?AV?$GP@VIW44Image@@@@W4ImageType@1@@Z   @426
   ?decode@PrimaryHeader@IW44Image@@QAEXV?$GP@VByteStream@@@@@Z   @427
   ?decode@SecondaryHeader@IW44Image@@QAEXV?$GP@VByteStream@@@@@Z   @428
   ?decode@TertiaryHeader@IW44Image@@QAEXV?$GP@VByteStream@@@@HH@Z   @429
   ?decode_buckets@Codec@IW44Image@@QAEXAAVZPCodec@@HHAAVBlock@2@HH@Z   @430
   ?decode_chunk@IWBitmap@@UAEHV?$GP@VByteStream@@@@@Z   @431
   ?decode_chunk@IWPixmap@@UAEHV?$GP@VByteStream@@@@@Z   @432
   ?decode_iff@IWBitmap@@UAEXAAVIFFByteStream@@H@Z   @433
   ?decode_iff@IWPixmap@@UAEXAAVIFFByteStream@@H@Z   @434
   ?decode_prepare@Codec@IW44Image@@QAEHHHAAVBlock@2@@Z   @435
   ?encode_chunk@IW44Image@@UAEHV?$GP@VByteStream@@@@ABUIWEncoderParms@@@Z   @436
   ?encode_iff@IW44Image@@UAEXAAVIFFByteStream@@HPBUIWEncoderParms@@@Z   @437
   ?filter_begin@Transform@IW44Image@@KAXHH@Z   @438
   ?filter_end@Transform@IW44Image@@KAXXZ   @439
   ?finish_code_slice@Codec@IW44Image@@QAEHAAVZPCodec@@@Z   @440
   ?get_bitmap@IW44Image@@UAE?AV?$GP@VGBitmap@@@@HABVGRect@@@Z   @441
   ?get_bitmap@IW44Image@@UAE?AV?$GP@VGBitmap@@@@XZ   @442
   ?get_bitmap@IWBitmap@@UAE?AV?$GP@VGBitmap@@@@HABVGRect@@@Z   @443
   ?get_bitmap@IWBitmap@@UAE?AV?$GP@VGBitmap@@@@XZ   @444
   ?get_bucket_count@Map@IW44Image@@QBEHXZ   @445
   ?get_bytestream@IFFByteStream@@QAE?AV?$GP@VByteStream@@@@XZ   @446
   ?get_height@IW44Image@@QBEHXZ   @447
   ?get_memory_usage@IWBitmap@@UBEIXZ   @448
   ?get_memory_usage@IWPixmap@@UBEIXZ   @449
   ?get_memory_usage@Map@IW44Image@@QBEIXZ   @450
   ?get_percent_memory@IWBitmap@@UBEHXZ   @451
   ?get_percent_memory@IWPixmap@@UBEHXZ   @452
   ?get_pixmap@IW44Image@@UAE?AV?$GP@VGPixmap@@@@HABVGRect@@@Z   @453
   ?get_pixmap@IW44Image@@UAE?AV?$GP@VGPixmap@@@@XZ   @454
   ?get_pixmap@IWPixmap@@UAE?AV?$GP@VGPixmap@@@@HABVGRect@@@Z   @455
   ?get_pixmap@IWPixmap@@UAE?AV?$GP@VGPixmap@@@@XZ   @456
   ?get_serial@IWBitmap@@UAEHXZ   @457
   ?get_serial@IWPixmap@@UAEHXZ   @458
   ?get_width@IW44Image@@QBEHXZ   @459
   ?image@Map@IW44Image@@QAEXHABVGRect@@PACHHH@Z   @460
   ?image@Map@IW44Image@@QAEXPACHHH@Z   @461
   ?is_null_slice@Codec@IW44Image@@QAEHHH@Z   @462
   ?parm_crcbdelay@IW44Image@@UAEHH@Z   @463
   ?parm_crcbdelay@IWPixmap@@UAEHH@Z   @464
   ?parm_dbfrac@IWBitmap@@UAEXM@Z   @465
   ?parm_dbfrac@IWPixmap@@UAEXM@Z   @466
   ?read_liftblock@Block@IW44Image@@QAEXPBFPAVMap@2@@Z   @467
   ?write_liftblock@Block@IW44Image@@QBEXPAFHH@Z   @468
   ?zero@Block@IW44Image@@QAEXH@Z   @469
   ??0?$GP@VGBitmap@@@@QAE@ABV0@@Z   @470
   ??0?$GPBuffer@F@@QAE@AAPAFI@Z   @471
   ??0Encode@Codec@IW44Image@@QAE@AAVMap@2@@Z   @472
   ??0Encode@IWBitmap@@QAE@XZ   @473
   ??0Encode@IWPixmap@@QAE@XZ   @474
   ??1?$GP@VIW44Image@@@@QAE@XZ   @475
   ??1?$GPBuffer@C@@QAE@XZ   @476
   ??1Encode@Codec@IW44Image@@UAE@XZ   @477
   ??1Encode@IWBitmap@@UAE@XZ   @478
   ??1Encode@IWPixmap@@UAE@XZ   @479
   ?RGB_to_Cb@Encode@Transform@IW44Image@@SAXPBUGPixel@@HHHPACH@Z   @480
   ?RGB_to_Cr@Encode@Transform@IW44Image@@SAXPBUGPixel@@HHHPACH@Z   @481
   ?RGB_to_Y@Encode@Transform@IW44Image@@SAXPBUGPixel@@HHHPACH@Z   @482
   ?close_codec@Encode@IWBitmap@@UAEXXZ   @483
   ?close_codec@Encode@IWPixmap@@UAEXXZ   @484
   ?code_slice@Encode@Codec@IW44Image@@UAEHAAVZPCodec@@@Z   @485
   ?create@Encode@Map@IW44Image@@QAEXPBCH0H@Z   @486
   ?create_encode@IW44Image@@SA?AV?$GP@VIW44Image@@@@ABVGBitmap@@V?$GP@VGBitmap@@@@@Z   @487
   ?create_encode@IW44Image@@SA?AV?$GP@VIW44Image@@@@ABVGPixmap@@V?$GP@VGBitmap@@@@W4CRCBMode@1@@Z   @488
   ?create_encode@IW44Image@@SA?AV?$GP@VIW44Image@@@@W4ImageType@1@@Z   @489
   ?encode@PrimaryHeader@IW44Image@@QAEXV?$GP@VByteStream@@@@@Z   @490
   ?encode@SecondaryHeader@IW44Image@@QAEXV?$GP@VByteStream@@@@@Z   @491
   ?encode@TertiaryHeader@IW44Image@@QAEXV?$GP@VByteStream@@@@@Z   @492
   ?encode_buckets@Encode@Codec@IW44Image@@QAEXAAVZPCodec@@HHAAVBlock@3@1HH@Z   @493
   ?encode_chunk@Encode@IWBitmap@@UAEHV?$GP@VByteStream@@@@ABUIWEncoderParms@@@Z   @494
   ?encode_chunk@Encode@IWPixmap@@UAEHV?$GP@VByteStream@@@@ABUIWEncoderParms@@@Z   @495
   ?encode_iff@Encode@IWBitmap@@UAEXAAVIFFByteStream@@HPBUIWEncoderParms@@@Z   @496
   ?encode_iff@Encode@IWPixmap@@UAEXAAVIFFByteStream@@HPBUIWEncoderParms@@@Z   @497
   ?encode_prepare@Encode@Codec@IW44Image@@QAEHHHHAAVBlock@3@0@Z   @498
   ?estimate_decibel@Encode@Codec@IW44Image@@QAEMM@Z   @499
   ?forward@Encode@Transform@IW44Image@@SAXPAFHHHHH@Z   @500
   ?init@Encode@IWBitmap@@QAEXABVGBitmap@@V?$GP@VGBitmap@@@@@Z   @501
   ?init@Encode@IWPixmap@@QAEXABVGPixmap@@V?$GP@VGBitmap@@@@W4CRCBMode@12@@Z   @502
   ?slashres@Encode@Map@IW44Image@@QAEXH@Z   @503
   ??0IFFByteStream@@IAE@ABV?$GP@VByteStream@@@@H@Z   @504
   ??1IFFByteStream@@UAE@XZ   @505
   ?check_id@IFFByteStream@@SAHPBD@Z   @506
   ?close_chunk@IFFByteStream@@QAEXXZ   @507
   ?compare@IFFByteStream@@QAE_NAAV1@@Z   @508
   ?composite@IFFByteStream@@QAEHXZ   @509
   ?create@IFFByteStream@@SA?AV?$GP@VIFFByteStream@@@@ABV?$GP@VByteStream@@@@@Z   @510
   ?flush@IFFByteStream@@UAEXXZ   @511
   ?full_id@IFFByteStream@@QAEXAAVGUTF8String@@@Z   @512
   ?get_chunk@IFFByteStream@@QAEHAAVGUTF8String@@PAH1@Z   @513
   ?put_chunk@IFFByteStream@@QAEXPBDH@Z   @514
   ?read@IFFByteStream@@UAEIPAXI@Z   @515
   ?ready@IFFByteStream@@QAEHXZ   @516
   ?seek@Wrapper@ByteStream@@UAEHJH_N@Z   @517
   ?seek_close_chunk@IFFByteStream@@QAEXXZ   @518
   ?short_id@IFFByteStream@@QAEXAAVGUTF8String@@@Z   @519
   ?tell@IFFByteStream@@UBEJXZ   @520
   ?write@IFFByteStream@@UAEIPBXI@Z   @521
   ??0?$ArrayBaseT@VGUTF8String@@@@IAE@XZ   @522
   ??0?$DArray@VGUTF8String@@@@QAE@XZ   @523
   ??0?$GListImpl@VGURL@@@@IAE@XZ   @524
   ??0?$GListTemplate@VGURL@@V1@@@QAE@ABV0@@Z   @525
   ??0ArrayBase@@IAE@XZ   @526
   ??0ArrayBase@@QAE@ABV0@@Z   @527
   ??0Filename@GURL@@QAE@ABVGNativeString@@@Z   @528
   ??0Filename@GURL@@QAE@ABVGUTF8String@@@Z   @529
   ??0GCriticalSectionLock@@QAE@PAVGCriticalSection@@@Z   @530
   ??0GURL@@IAE@PBD@Z   @531
   ??0GURL@@QAE@ABV0@@Z   @532
   ??0GURL@@QAE@ABVGNativeString@@@Z   @533
   ??0GURL@@QAE@ABVGNativeString@@ABV0@@Z   @534
   ??0GURL@@QAE@ABVGUTF8String@@@Z   @535
   ??0GURL@@QAE@ABVGUTF8String@@ABV0@@Z   @536
   ??0GURL@@QAE@XZ   @537
   ??0Native@Filename@GURL@@QAE@ABVGNativeString@@@Z   @538
   ??0Native@GURL@@QAE@ABVGNativeString@@@Z   @539
   ??0Native@GURL@@QAE@ABVGNativeString@@ABV1@@Z   @540
   ??0UTF8@Filename@GURL@@QAE@ABVGUTF8String@@@Z   @541
   ??0UTF8@GURL@@QAE@ABVGUTF8String@@@Z   @542
   ??0UTF8@GURL@@QAE@ABVGUTF8String@@ABV1@@Z   @543
   ??1?$GList@VGURL@@@@QAE@XZ   @544
   ??1?$ListNode@VGURL@@@@QAE@XZ   @545
   ??1Filename@GURL@@UAE@XZ   @546
   ??1Native@Filename@GURL@@UAE@XZ   @547
   ??1Native@GURL@@UAE@XZ   @548
   ??1_ArrayBase@@UAE@XZ   @549
   ??4GURL@@QAEAAV0@ABV0@@Z   @550
   ??8GURL@@QBE_NABV0@@Z   @551
   ??A?$GListTemplate@VGURL@@V1@@@QAEAAVGURL@@VGPosition@@@Z   @552
   ??AGBaseString@@QBEDH@Z   @553
   ?NativeFilename@GURL@@QBE?AVGNativeString@@XZ   @554
   ?UTF8Filename@GURL@@QBE?AVGUTF8String@@XZ   @555
   ?add_djvu_cgi_argument@GURL@@QAEXABVGUTF8String@@PBD@Z   @556
   ?assign@_ArrayBase@@QAEAAV1@PAV_ArrayRep@@@Z   @557
   ?base@GURL@@QBE?AV1@XZ   @558
   ?beautify_path@GURL@@IAEXXZ   @559
   ?beautify_path@GURL@@KA?AVGUTF8String@@V2@@Z   @560
   ?cgi_arguments@GURL@@QBEHXZ   @561
   ?cgi_name@GURL@@QBE?AVGUTF8String@@H@Z   @562
   ?cgi_names@GURL@@QBE?AV?$DArray@VGUTF8String@@@@XZ   @563
   ?cgi_value@GURL@@QBE?AVGUTF8String@@H@Z   @564
   ?cgi_values@GURL@@QBE?AV?$DArray@VGUTF8String@@@@XZ   @565
   ?check@ArrayBase@@IAEXXZ   @566
   ?clear_all_arguments@GURL@@QAEXXZ   @567
   ?clear_cgi_arguments@GURL@@QAEXXZ   @568
   ?clear_djvu_cgi_arguments@GURL@@QAEXXZ   @569
   ?clear_hash_argument@GURL@@QAEXXZ   @570
   ?cleardir@GURL@@QBEHH@Z   @571
   ?convert_slashes@GURL@@IAEXXZ   @572
   ?copy@?$DArray@VGUTF8String@@@@CAXPAXHHPBXHH@Z   @573
   ?copy@?$NormTraits@U?$ListNode@VGURL@@@@@@SAXPAXPBXHH@Z   @574
   ?decode_reserved@GURL@@SA?AVGUTF8String@@ABV2@@Z   @575
   ?deletefile@GURL@@QBEHXZ   @576
   ?destroy@?$DArray@VGUTF8String@@@@CAXPAXHH@Z   @577
   ?detach@ArrayBase@@IAEXXZ   @578
   ?djvu_cgi_arguments@GURL@@QBEHXZ   @579
   ?djvu_cgi_name@GURL@@QBE?AVGUTF8String@@H@Z   @580
   ?djvu_cgi_names@GURL@@QBE?AV?$DArray@VGUTF8String@@@@XZ   @581
   ?djvu_cgi_value@GURL@@QBE?AVGUTF8String@@H@Z   @582
   ?djvu_cgi_values@GURL@@QBE?AV?$DArray@VGUTF8String@@@@XZ   @583
   ?encode_reserved@GURL@@SA?AVGUTF8String@@ABV2@@Z   @584
   ?expand_name@GURL@@SA?AVGUTF8String@@ABV2@PBD@Z   @585
   ?extension@GURL@@QBE?AVGUTF8String@@XZ   @586
   ?fini@?$NormTraits@U?$ListNode@VGURL@@@@@@SAXPAXH@Z   @587
   ?fname@GURL@@QBE?AVGUTF8String@@XZ   @588
   ?follow_symlinks@GURL@@QBE?AV1@XZ   @589
   ?get_string@GURL@@QBE?AVGUTF8String@@ABV2@@Z   @590
   ?get_string@GURL@@QBE?AVGUTF8String@@_N@Z   @591
   ?hash@@YAIABVGURL@@@Z   @592
   ?hash_argument@GURL@@QBE?AVGUTF8String@@XZ   @593
   ?init1@?$DArray@VGUTF8String@@@@CAXPAXHH@Z   @594
   ?init2@?$DArray@VGUTF8String@@@@CAXPAXHHPBXHH@Z   @595
   ?init@?$NormTraits@U?$ListNode@VGURL@@@@@@SAXPAXH@Z   @596
   ?init@GURL@@IAEX_N@Z   @597
   ?insert@?$DArray@VGUTF8String@@@@CAXPAXHHPBXH@Z   @598
   ?is_dir@GURL@@QBE_NXZ   @599
   ?is_file@GURL@@QBE_NXZ   @600
   ?is_local_file_url@GURL@@QBE_NXZ   @601
   ?is_local_path@GURL@@QBE_NXZ   @602
   ?lea@?$NormTraits@U?$ListNode@VGURL@@@@@@SAPAXPAXH@Z   @603
   ?listdir@GURL@@QBE?AV?$GList@VGURL@@@@XZ   @604
   ?mkdir@GURL@@QBEHXZ   @605
   ?name@GURL@@QBE?AVGUTF8String@@XZ   @606
   ?newnode@?$GListImpl@VGURL@@@@KAPAUNode@@ABVGURL@@@Z   @607
   ?parse_cgi_args@GURL@@IAEXXZ   @608
   ?pathname@GURL@@QBE?AVGUTF8String@@XZ   @609
   ?protocol@GURL@@KA?AVGUTF8String@@ABV2@@Z   @610
   ?protocol@GURL@@QBE?AVGUTF8String@@XZ   @611
   ?renameto@GURL@@QBEHABV1@@Z   @612
   ?search@GBaseString@@QBEHDH@Z   @613
   ?set_hash_argument@GURL@@QAEXABVGUTF8String@@@Z   @614
   ?store_cgi_args@GURL@@IAEXXZ   @615
   ?theTraits@?1??traits@?$NormTraits@U?$ListNode@VGURL@@@@@@SAABUTraits@@XZ@4U3@B   @616
   ?unref@_ArrayRep@@AAEXXZ   @617
   ??0?$GP@VGStringRep@@@@QAE@ABV0@@Z   @618
   ??0Unicode@GStringRep@@QAE@XZ   @619
   ??1Unicode@GStringRep@@UAE@XZ   @620
   ?create@GUTF8String@@SA?AV1@QBXIABV1@@Z   @621
   ?create@GUTF8String@@SA?AV1@QBXIABV?$GP@VUnicode@GStringRep@@@@@Z   @622
   ?create@GUTF8String@@SA?AV1@QBXIW4EncodeType@GStringRep@@@Z   @623
   ?create@GUTF8String@@SA?AV1@QBXIW4EncodeType@GStringRep@@ABV1@@Z   @624
   ?create@Unicode@GStringRep@@SA?AV?$GP@VGStringRep@@@@I@Z   @625
   ?create@Unicode@GStringRep@@SA?AV?$GP@VGStringRep@@@@QBXIABV?$GP@VUnicode@GStringRep@@@@@Z   @626
   ?create@Unicode@GStringRep@@SA?AV?$GP@VGStringRep@@@@QBXIV3@@Z   @627
   ?create@Unicode@GStringRep@@SA?AV?$GP@VGStringRep@@@@QBXIW4EncodeType@2@@Z   @628
   ?create@Unicode@GStringRep@@SA?AV?$GP@VGStringRep@@@@QBXIW4EncodeType@2@ABV3@@Z   @629
   ?get_remainder@Unicode@GStringRep@@MBE?AV?$GP@VUnicode@GStringRep@@@@XZ   @630
   ?isNative@GStringRep@@UBE_NXZ   @631
   ?set_remainder@Unicode@GStringRep@@MAEXABV?$GP@VUnicode@GStringRep@@@@@Z   @632
   ?set_remainder@Unicode@GStringRep@@MAEXQBXIABV?$GP@VGStringRep@@@@@Z   @633
   ?set_remainder@Unicode@GStringRep@@MAEXQBXIW4EncodeType@2@@Z   @634
   ??0GMonitor@@QAE@XZ   @635
   ??1GMonitor@@QAE@XZ   @636
   ??4GSafeFlags@@QAEAAV0@J@Z   @637
   ??BGSafeFlags@@QBEJXZ   @638
   ?broadcast@GMonitor@@QAEXXZ   @639
   ?create@GThread@@QAEHP6AXPAX@Z0@Z   @640
   ?enter@GMonitor@@QAEXXZ   @641
   ?leave@GMonitor@@QAEXXZ   @642
   ?signal@GMonitor@@QAEXXZ   @643
   ?test_and_modify@GSafeFlags@@QAE_NJJJJ@Z   @644
   ?wait@GMonitor@@QAEXK@Z   @645
   ?wait@GMonitor@@QAEXXZ   @646
   ?wait_and_modify@GSafeFlags@@QAEXJJJJ@Z   @647
   ??0?$GMap@VGUTF8String@@V1@@@QAE@XZ   @648
   ??0ChangeLocale@GStringRep@@QAE@HQBD@Z   @649
   ??0GNativeString@@QAE@ABV0@@Z   @650
   ??0GNativeString@@QAE@ABVGBaseString@@HH@Z   @651
   ??0GNativeString@@QAE@D@Z   @652
   ??0GNativeString@@QAE@H@Z   @653
   ??0GNativeString@@QAE@N@Z   @654
   ??0GNativeString@@QAE@PBD@Z   @655
   ??0GNativeString@@QAE@PBDI@Z   @656
   ??0GNativeString@@QAE@PBE@Z   @657
   ??0GNativeString@@QAE@PBG@Z   @658
   ??0GNativeString@@QAE@PBGI@Z   @659
   ??0GNativeString@@QAE@PBK@Z   @660
   ??0GNativeString@@QAE@PBKI@Z   @661
   ??0GStringRep@@QAE@XZ   @662
   ??0GUTF8String@@QAE@ABV0@AAPAD@Z   @663
   ??0GUTF8String@@QAE@ABVGBaseString@@HH@Z   @664
   ??0GUTF8String@@QAE@D@Z   @665
   ??0GUTF8String@@QAE@H@Z   @666
   ??0GUTF8String@@QAE@N@Z   @667
   ??0GUTF8String@@QAE@PBD@Z   @668
   ??0GUTF8String@@QAE@PBDI@Z   @669
   ??0GUTF8String@@QAE@PBE@Z   @670
   ??0GUTF8String@@QAE@PBG@Z   @671
   ??0GUTF8String@@QAE@PBGI@Z   @672
   ??0GUTF8String@@QAE@PBK@Z   @673
   ??0GUTF8String@@QAE@PBKI@Z   @674
   ??0Native@GStringRep@@QAE@XZ   @675
   ??0UTF8@GStringRep@@QAE@XZ   @676
   ??1ChangeLocale@GStringRep@@QAE@XZ   @677
   ??1GBaseString@@IAE@XZ   @678
   ??1GNativeString@@QAE@XZ   @679
   ??1GStringRep@@UAE@XZ   @680
   ??1GUTF8String@@QAE@XZ   @681
   ??1Native@GStringRep@@UAE@XZ   @682
   ??1UTF8@GStringRep@@UAE@XZ   @683
   ??4GNativeString@@QAEAAV0@D@Z   @684
   ??4GNativeString@@QAEAAV0@PBD@Z   @685
   ??4GUTF8String@@QAEAAV0@D@Z   @686
   ??4GUTF8String@@QAEAAV0@PBD@Z   @687
   ??H@YA?AVGNativeString@@PBDABV0@@Z   @688
   ??H@YA?AVGUTF8String@@PBDABV0@@Z   @689
   ??HGBaseString@@QBE?AVGNativeString@@ABV1@@Z   @690
   ??HGBaseString@@QBE?AVGUTF8String@@ABV1@@Z   @691
   ??HGNativeString@@QBE?AV0@ABV0@@Z   @692
   ??HGNativeString@@QBE?AV0@ABVGBaseString@@@Z   @693
   ??HGNativeString@@QBE?AV0@PBD@Z   @694
   ??HGNativeString@@QBE?AVGUTF8String@@ABV1@@Z   @695
   ??HGUTF8String@@QBE?AV0@ABV0@@Z   @696
   ??HGUTF8String@@QBE?AV0@ABVGBaseString@@@Z   @697
   ??HGUTF8String@@QBE?AV0@ABVGNativeString@@@Z   @698
   ??HGUTF8String@@QBE?AV0@PBD@Z   @699
   ??YGNativeString@@QAEAAV0@ABVGBaseString@@@Z   @700
   ??YGNativeString@@QAEAAV0@D@Z   @701
   ??YGNativeString@@QAEAAV0@PBD@Z   @702
   ??YGUTF8String@@QAEAAV0@ABVGBaseString@@@Z   @703
   ??YGUTF8String@@QAEAAV0@D@Z   @704
   ??YGUTF8String@@QAEAAV0@PBD@Z   @705
   ?NativeToUTF8@GBaseString@@QBE?AVGUTF8String@@XZ   @706
   ?NativeToUTF8@GStringRep@@SA?AV?$GP@VGStringRep@@@@PBD@Z   @707
   ?UCS4toNative@GStringRep@@SAPAEKPAEPAH@Z   @708
   ?UCS4toString@Native@GStringRep@@UBEPAEKPAEPAH@Z   @709
   ?UCS4toString@UTF8@GStringRep@@UBEPAEKPAEPAH@Z   @710
   ?UCS4toUTF16@GStringRep@@SAHKAAG0@Z   @711
   ?UCS4toUTF8@GStringRep@@SAPAEKPAE@Z   @712
   ?UTF16toUCS4@GStringRep@@SAHAAKQBGQBX@Z   @713
   ?UTF8ToNative@GBaseString@@QBE?AVGNativeString@@_NW4EscapeMode@1@@Z   @714
   ?UTF8ToNative@GStringRep@@SA?AV?$GP@VGStringRep@@@@PBDW4EscapeMode@1@@Z   @715
   ?UTF8toUCS4@GStringRep@@SAKAAPBEQBX@Z   @716
   ?append@GStringRep@@QBE?AV?$GP@VGStringRep@@@@PBD@Z   @717
   ?append@Native@GStringRep@@UBE?AV?$GP@VGStringRep@@@@ABV3@@Z   @718
   ?append@UTF8@GStringRep@@UBE?AV?$GP@VGStringRep@@@@ABV3@@Z   @719
   ?blank@Native@GStringRep@@UBE?AV?$GP@VGStringRep@@@@I@Z   @720
   ?blank@UTF8@GStringRep@@UBE?AV?$GP@VGStringRep@@@@I@Z   @721
   ?cmp@GStringRep@@QBEHPBDH@Z   @722
   ?cmp@GStringRep@@SAHABV?$GP@VGStringRep@@@@0H@Z   @723
   ?cmp@GStringRep@@SAHABV?$GP@VGStringRep@@@@PBDH@Z   @724
   ?cmp@GStringRep@@SAHPBD0H@Z   @725
   ?cmp@GStringRep@@SAHPBDABV?$GP@VGStringRep@@@@H@Z   @726
   ?cmp@Native@GStringRep@@UBEHABV?$GP@VGStringRep@@@@H@Z   @727
   ?cmp@UTF8@GStringRep@@UBEHABV?$GP@VGStringRep@@@@H@Z   @728
   ?concat@GStringRep@@QBE?AV?$GP@VGStringRep@@@@ABV2@0@Z   @729
   ?concat@GStringRep@@QBE?AV?$GP@VGStringRep@@@@ABV2@PBD@Z   @730
   ?concat@GStringRep@@QBE?AV?$GP@VGStringRep@@@@PBD0@Z   @731
   ?concat@GStringRep@@QBE?AV?$GP@VGStringRep@@@@PBDABV2@@Z   @732
   ?contains@GStringRep@@QBEHQBDH@Z   @733
   ?create@GStringRep@@SA?AV?$GP@VGStringRep@@@@IPAVNative@1@@Z   @734
   ?create@GStringRep@@SA?AV?$GP@VGStringRep@@@@IPAVUTF8@1@@Z   @735
   ?create@Native@GStringRep@@SA?AV?$GP@VGStringRep@@@@ABV3@0@Z   @736
   ?create@Native@GStringRep@@SA?AV?$GP@VGStringRep@@@@ABV3@PBD@Z   @737
   ?create@Native@GStringRep@@SA?AV?$GP@VGStringRep@@@@I@Z   @738
   ?create@Native@GStringRep@@SA?AV?$GP@VGStringRep@@@@PBD0@Z   @739
   ?create@Native@GStringRep@@SA?AV?$GP@VGStringRep@@@@PBD@Z   @740
   ?create@Native@GStringRep@@SA?AV?$GP@VGStringRep@@@@PBDABV3@@Z   @741
   ?create@Native@GStringRep@@SA?AV?$GP@VGStringRep@@@@PBDHH@Z   @742
   ?create@Native@GStringRep@@SA?AV?$GP@VGStringRep@@@@PBGHH@Z   @743
   ?create@Native@GStringRep@@SA?AV?$GP@VGStringRep@@@@PBKHH@Z   @744
   ?create@Native@GStringRep@@SA?AV?$GP@VGStringRep@@@@QBDAAPAD@Z   @745
   ?create@UTF8@GStringRep@@SA?AV?$GP@VGStringRep@@@@ABV3@0@Z   @746
   ?create@UTF8@GStringRep@@SA?AV?$GP@VGStringRep@@@@ABV3@PBD@Z   @747
   ?create@UTF8@GStringRep@@SA?AV?$GP@VGStringRep@@@@I@Z   @748
   ?create@UTF8@GStringRep@@SA?AV?$GP@VGStringRep@@@@PBD0@Z   @749
   ?create@UTF8@GStringRep@@SA?AV?$GP@VGStringRep@@@@PBD@Z   @750
   ?create@UTF8@GStringRep@@SA?AV?$GP@VGStringRep@@@@PBDABV3@@Z   @751
   ?create@UTF8@GStringRep@@SA?AV?$GP@VGStringRep@@@@PBDHH@Z   @752
   ?create@UTF8@GStringRep@@SA?AV?$GP@VGStringRep@@@@PBGHH@Z   @753
   ?create@UTF8@GStringRep@@SA?AV?$GP@VGStringRep@@@@PBKHH@Z   @754
   ?create@UTF8@GStringRep@@SA?AV?$GP@VGStringRep@@@@QBDAAPAD@Z   @755
   ?create_format@Native@GStringRep@@SA?AV?$GP@VGStringRep@@@@QBDZZ   @756
   ?create_format@UTF8@GStringRep@@SA?AV?$GP@VGStringRep@@@@QBDZZ   @757
   ?downcase@GStringRep@@QBE?AV?$GP@VGStringRep@@@@XZ   @758
   ?empty@GBaseString@@QAEXXZ   @759
   ?firstEndSpace@GStringRep@@QBEHHH@Z   @760
   ?format@GNativeString@@QAAAAV1@PBDZZ   @761
   ?format@GUTF8String@@QAAAAV1@PBDZZ   @762
   ?fromEscaped@GUTF8String@@QBE?AV1@V?$GMap@VGUTF8String@@V1@@@@Z   @763
   ?fromEscaped@GUTF8String@@QBE?AV1@XZ   @764
   ?getNative2UTF8@GBaseString@@QBE?AVGUTF8String@@XZ   @765
   ?getUCS4@GStringRep@@QBEHAAKH@Z   @766
   ?getUTF82Native@GBaseString@@QBE?AVGNativeString@@W4EscapeMode@1@@Z   @767
   ?getValidUCS4@Native@GStringRep@@MBEKAAPBD@Z   @768
   ?getValidUCS4@UTF8@GStringRep@@MBEKAAPBD@Z   @769
   ?get_remainder@GStringRep@@MBE?AV?$GP@VUnicode@GStringRep@@@@XZ   @770
   ?getbuf@GNativeString@@QAEPADH@Z   @771
   ?getbuf@GStringRep@@QBE?AV?$GP@VGStringRep@@@@H@Z   @772
   ?getbuf@GUTF8String@@QAEPADH@Z   @773
   ?giswlower@GStringRep@@KA_NK@Z   @774
   ?giswspace@GStringRep@@KA_NK@Z   @775
   ?giswupper@GStringRep@@KA_NK@Z   @776
   ?gtowlower@GStringRep@@KAKK@Z   @777
   ?gtowupper@GStringRep@@KAKK@Z   @778
   ?hash@@YAIABVGBaseString@@@Z   @779
   ?init@GNativeString@@QAEAAV1@ABV?$GP@VGStringRep@@@@@Z   @780
   ?isCharType@GStringRep@@IBEPBDP6A_NK@ZPBD_N@Z   @781
   ?isNative@Native@GStringRep@@UBE_NXZ   @782
   ?isUTF8@GStringRep@@UBE_NXZ   @783
   ?isUTF8@UTF8@GStringRep@@UBE_NXZ   @784
   ?is_float@GBaseString@@QBE_NXZ   @785
   ?is_int@GBaseString@@QBE_NXZ   @786
   ?is_valid@Native@GStringRep@@UBE_NXZ   @787
   ?is_valid@UTF8@GStringRep@@UBE_NXZ   @788
   ?ncopy@Native@GStringRep@@UBEHQAGH@Z   @789
   ?ncopy@UTF8@GStringRep@@UBEHQAGH@Z   @790
   ?nextChar@GStringRep@@QBEHH@Z   @791
   ?nextCharType@GStringRep@@IBEHP6A_NK@ZHH_N@Z   @792
   ?nextNonSpace@GStringRep@@QBEHHH@Z   @793
   ?nextSpace@GStringRep@@QBEHHH@Z   @794
   ?nullstr@GBaseString@@1PBDB   @795
   ?rcontains@GStringRep@@QBEHQBDH@Z   @796
   ?rsearch@GStringRep@@QBEHDH@Z   @797
   ?rsearch@GStringRep@@QBEHPBDH@Z   @798
   ?search@GStringRep@@QBEHDH@Z   @799
   ?search@GStringRep@@QBEHPBDH@Z   @800
   ?set_remainder@GStringRep@@MAEXABV?$GP@VUnicode@GStringRep@@@@@Z   @801
   ?set_remainder@GStringRep@@MAEXQBXIABV?$GP@VGStringRep@@@@@Z   @802
   ?set_remainder@GStringRep@@MAEXQBXIW4EncodeType@1@@Z   @803
   ?setat@GNativeString@@QAEXHD@Z   @804
   ?setat@GStringRep@@QBE?AV?$GP@VGStringRep@@@@HD@Z   @805
   ?setat@GUTF8String@@QAEXHD@Z   @806
   ?strdup@GStringRep@@QBE?AV?$GP@VGStringRep@@@@PBD@Z   @807
   ?substr@GStringRep@@QBE?AV?$GP@VGStringRep@@@@PBDHH@Z   @808
   ?substr@GStringRep@@QBE?AV?$GP@VGStringRep@@@@PBGHH@Z   @809
   ?substr@GStringRep@@QBE?AV?$GP@VGStringRep@@@@PBKHH@Z   @810
   ?substr@GUTF8String@@QBE?AV1@HH@Z   @811
   ?throw_illegal_subscript@GBaseString@@KAXXZ   @812
   ?toDouble@Native@GStringRep@@UBENHAAH@Z   @813
   ?toDouble@UTF8@GStringRep@@UBENHAAH@Z   @814
   ?toEscaped@GStringRep@@QBE?AV?$GP@VGStringRep@@@@_N@Z   @815
   ?toInt@Native@GStringRep@@UBEHXZ   @816
   ?toInt@UTF8@GStringRep@@UBEHXZ   @817
   ?toLong@Native@GStringRep@@UBEJHAAHH@Z   @818
   ?toLong@UTF8@GStringRep@@UBEJHAAHH@Z   @819
   ?toNative@Native@GStringRep@@UBE?AV?$GP@VGStringRep@@@@W4EscapeMode@2@@Z   @820
   ?toNative@UTF8@GStringRep@@UBE?AV?$GP@VGStringRep@@@@W4EscapeMode@2@@Z   @821
   ?toThis@Native@GStringRep@@UBE?AV?$GP@VGStringRep@@@@ABV3@0@Z   @822
   ?toThis@UTF8@GStringRep@@UBE?AV?$GP@VGStringRep@@@@ABV3@0@Z   @823
   ?toULong@Native@GStringRep@@UBEKHAAHH@Z   @824
   ?toULong@UTF8@GStringRep@@UBEKHAAHH@Z   @825
   ?toUTF8@Native@GStringRep@@UBE?AV?$GP@VGStringRep@@@@_N@Z   @826
   ?toUTF8@UTF8@GStringRep@@UBE?AV?$GP@VGStringRep@@@@_N@Z   @827
   ?tocase@GStringRep@@IBE?AV?$GP@VGStringRep@@@@P6A_NK@ZP6AKK@Z@Z   @828
   ?upcase@GStringRep@@QBE?AV?$GP@VGStringRep@@@@XZ   @829
   ?vformat@GStringRep@@QBE?AV?$GP@VGStringRep@@@@PAD@Z   @830
   ??0GCriticalSection@@QAE@XZ   @831
   ??0GPBufferBase@@QAE@AAPAXII@Z   @832
   ??1GPBufferBase@@QAE@XZ   @833
   ??1GPEnabled@@UAE@XZ   @834
   ?assign@GPBase@@QAEAAV1@ABV1@@Z   @835
   ?assign@GPBase@@QAEAAV1@PAVGPEnabled@@@Z   @836
   ?destroy@GPEnabled@@AAEXXZ   @837
   ?ref@GPEnabled@@AAEXXZ   @838
   ?replace@GPBufferBase@@QAEXPAXI@Z   @839
   ?resize@GPBufferBase@@QAEXII@Z   @840
   ?set@GPBufferBase@@QAEXID@Z   @841
   ?swap@GPBufferBase@@QAEXAAV1@@Z   @842
   ?unref@GPEnabled@@AAEXXZ   @843
   ??0GBitmapScaler@@IAE@HHHH@Z   @844
   ??0GBitmapScaler@@IAE@XZ   @845
   ??0GPixmapScaler@@IAE@HHHH@Z   @846
   ??0GPixmapScaler@@IAE@XZ   @847
   ??0GScaler@@IAE@XZ   @848
   ??1?$GPBuffer@H@@QAE@XZ   @849
   ??1?$GPBuffer@UGPixel@@@@QAE@XZ   @850
   ??1GBitmapScaler@@UAE@XZ   @851
   ??1GPixmapScaler@@UAE@XZ   @852
   ??1GScaler@@UAE@XZ   @853
   ?get_input_rect@GScaler@@QAEXABVGRect@@AAV2@@Z   @854
   ?get_line@GBitmapScaler@@IAEPAEHABVGRect@@0ABVGBitmap@@@Z   @855
   ?get_line@GPixmapScaler@@IAEPAUGPixel@@HABVGRect@@0ABVGPixmap@@@Z   @856
   ?make_rectangles@GScaler@@IAEXABVGRect@@AAV2@1@Z   @857
   ?scale@GBitmapScaler@@QAEXABVGRect@@ABVGBitmap@@0AAV3@@Z   @858
   ?scale@GPixmapScaler@@QAEXABVGRect@@ABVGPixmap@@0AAV3@@Z   @859
   ?set_horz_ratio@GScaler@@QAEXHH@Z   @860
   ?set_input_size@GScaler@@QAEXHH@Z   @861
   ?set_output_size@GScaler@@QAEXHH@Z   @862
   ?set_vert_ratio@GScaler@@QAEXHH@Z   @863
   ??0GRectMapper@@QAE@XZ   @864
   ??8@YAHABVGRect@@0@Z   @865
   ?clear@GRectMapper@@QAEXXZ   @866
   ?contains@GRect@@QBEHABV1@@Z   @867
   ?get_input@GRectMapper@@QAE?AVGRect@@XZ   @868
   ?get_output@GRectMapper@@QAE?AVGRect@@XZ   @869
   ?inflate@GRect@@QAEHHH@Z   @870
   ?intersect@GRect@@QAEHABV1@0@Z   @871
   ?map@GRectMapper@@QAEXAAH0@Z   @872
   ?map@GRectMapper@@QAEXAAVGRect@@@Z   @873
   ?mirrorx@GRectMapper@@QAEXXZ   @874
   ?mirrory@GRectMapper@@QAEXXZ   @875
   ?precalc@GRectMapper@@AAEXXZ   @876
   ?recthull@GRect@@QAEHABV1@0@Z   @877
   ?rotate@GRectMapper@@QAEXH@Z   @878
   ?scale@GRect@@QAEXM@Z   @879
   ?scale@GRect@@QAEXMM@Z   @880
   ?set_input@GRectMapper@@QAEXABVGRect@@@Z   @881
   ?set_output@GRectMapper@@QAEXABVGRect@@@Z   @882
   ?translate@GRect@@QAEHHH@Z   @883
   ?unmap@GRectMapper@@QAEXAAH0@Z   @884
   ?unmap@GRectMapper@@QAEXAAVGRect@@@Z   @885
   ??0GPixmap@@IAE@AAVByteStream@@@Z   @886
   ??0GPixmap@@IAE@ABV0@@Z   @887
   ??0GPixmap@@IAE@ABV0@ABVGRect@@@Z   @888
   ??0GPixmap@@IAE@ABVGBitmap@@@Z   @889
   ??0GPixmap@@IAE@ABVGBitmap@@ABVGRect@@@Z   @890
   ??0GPixmap@@IAE@HHPBUGPixel@@@Z   @891
   ??0GPixmap@@IAE@XZ   @892
   ??1?$GTArray@E@@QAE@XZ   @893
   ??1GPixmap@@UAE@XZ   @894
   ??AGPixmap@@QBEPBUGPixel@@H@Z   @895
   ?BLACK@GPixel@@2U1@B   @896
   ?BLUE@GPixel@@2U1@B   @897
   ?GREEN@GPixel@@2U1@B   @898
   ?RED@GPixel@@2U1@B   @899
   ?WHITE@GPixel@@2U1@B   @900
   ?attenuate@GPixmap@@QAEXPBVGBitmap@@HH@Z   @901
   ?blend@GPixmap@@QAEXPBVGBitmap@@HHPBV1@@Z   @902
   ?blit@GPixmap@@QAEXPBVGBitmap@@HHPBUGPixel@@@Z   @903
   ?blit@GPixmap@@QAEXPBVGBitmap@@HHPBV1@@Z   @904
   ?color_correct@GPixmap@@QAEXN@Z   @905
   ?color_correct@GPixmap@@SAXNPAUGPixel@@H@Z   @906
   ?copy@?$TrivTraits@$00@@SAXPAXPBXHH@Z   @907
   ?destroy@GPixmap@@QAEXXZ   @908
   ?donate_data@GPixmap@@QAEXPAUGPixel@@HH@Z   @909
   ?downsample43@GPixmap@@QAEXPBV1@PBVGRect@@@Z   @910
   ?downsample@GPixmap@@QAEXPBV1@HPBVGRect@@@Z   @911
   ?fini@?$TrivTraits@$00@@SAXPAXH@Z   @912
   ?init@?$TrivTraits@$00@@SAXPAXH@Z   @913
   ?init@GPixmap@@QAEXAAVByteStream@@@Z   @914
   ?init@GPixmap@@QAEXABV1@@Z   @915
   ?init@GPixmap@@QAEXABV1@ABVGRect@@@Z   @916
   ?init@GPixmap@@QAEXABVGBitmap@@ABVGRect@@PBUGPixel@@@Z   @917
   ?init@GPixmap@@QAEXABVGBitmap@@PBUGPixel@@@Z   @918
   ?init@GPixmap@@QAEXHHPBUGPixel@@@Z   @919
   ?lea@?$TrivTraits@$00@@SAPAXPAXH@Z   @920
   ?ordered_32k_dither@GPixmap@@QAEXHH@Z   @921
   ?ordered_666_dither@GPixmap@@QAEXHH@Z   @922
   ?rotate@GPixmap@@QAE?AV?$GP@VGPixmap@@@@H@Z   @923
   ?save_ppm@GPixmap@@QBEXAAVByteStream@@H@Z   @924
   ?stencil@GPixmap@@QAEXPBVGBitmap@@PBV1@HPBVGRect@@N@Z   @925
   ?take_data@GPixmap@@QAEPAUGPixel@@AAI@Z   @926
   ?theTraits@?1??traits@?$TrivTraits@$00@@SAABUTraits@@XZ@4U3@B   @927
   ?upsample23@GPixmap@@QAEXPBV1@PBVGRect@@@Z   @928
   ?upsample@GPixmap@@QAEXPBV1@HPBVGRect@@@Z   @929
   ?basename@GOS@@SA?AVGUTF8String@@ABV2@PBD@Z   @930
   ?cwd@GOS@@SA?AVGUTF8String@@ABV2@@Z   @931
   ?getenv@GOS@@SA?AVGUTF8String@@ABV2@@Z   @932
   ?sleep@GOS@@SAXH@Z   @933
   ?ticks@GOS@@SAKXZ   @934
   ??0?$GArrayTemplate@H@@QAE@ABV0@@Z   @935
   ??0GMapArea@@IAE@XZ   @936
   ??0GMapOval@@IAE@ABVGRect@@@Z   @937
   ??0GMapOval@@IAE@XZ   @938
   ??0GMapPoly@@IAE@PBH0H_N@Z   @939
   ??0GMapPoly@@IAE@XZ   @940
   ??0GMapRect@@IAE@ABVGRect@@@Z   @941
   ??0GMapRect@@IAE@XZ   @942
   ??0GRect@@QAE@HHII@Z   @943
   ??1GMapArea@@UAE@XZ   @944
   ??1GMapOval@@UAE@XZ   @945
   ??1GMapPoly@@UAE@XZ   @946
   ??1GMapRect@@UAE@XZ   @947
   ??4GMapRect@@QAEAAV0@ABVGRect@@@Z   @948
   ??A?$GArrayTemplate@H@@QBEABHH@Z   @949
   ?BORDER_AVIS_TAG@GMapArea@@2QBDB   @950
   ?HILITE_TAG@GMapArea@@2QBDB   @951
   ?MAPAREA_TAG@GMapArea@@2QBDB   @952
   ?NO_BORDER_TAG@GMapArea@@2QBDB   @953
   ?OVAL_TAG@GMapArea@@2QBDB   @954
   ?POLY_TAG@GMapArea@@2QBDB   @955
   ?RECT_TAG@GMapArea@@2QBDB   @956
   ?SHADOW_EIN_BORDER_TAG@GMapArea@@2QBDB   @957
   ?SHADOW_EOUT_BORDER_TAG@GMapArea@@2QBDB   @958
   ?SHADOW_IN_BORDER_TAG@GMapArea@@2QBDB   @959
   ?SHADOW_OUT_BORDER_TAG@GMapArea@@2QBDB   @960
   ?SOLID_BORDER_TAG@GMapArea@@2QBDB   @961
   ?TARGET_SELF@GMapArea@@2QBDB   @962
   ?URL_TAG@GMapArea@@2QBDB   @963
   ?XOR_BORDER_TAG@GMapArea@@2QBDB   @964
   ?add_vertex@GMapPoly@@QAEHHH@Z   @965
   ?are_segments_parallel@GMapPoly@@CA_NHHHHHHHH@Z   @966
   ?check_data@GMapPoly@@QAEQBDXZ   @967
   ?check_object@GMapArea@@QAEQBDXZ   @968
   ?close_poly@GMapPoly@@QAEXXZ   @969
   ?do_segments_intersect@GMapPoly@@CA_NHHHHHHHH@Z   @970
   ?does_side_cross_rect@GMapPoly@@QAE_NABVGRect@@H@Z   @971
   ?get_bound_rect@GMapArea@@QBE?AVGRect@@XZ   @972
   ?get_coords@GMapArea@@UBEXAAV?$GList@H@@@Z   @973
   ?get_coords@GMapPoly@@UBEXAAV?$GList@H@@@Z   @974
   ?get_copy@GMapOval@@UBE?AV?$GP@VGMapArea@@@@XZ   @975
   ?get_copy@GMapPoly@@UBE?AV?$GP@VGMapArea@@@@XZ   @976
   ?get_copy@GMapRect@@UBE?AV?$GP@VGMapArea@@@@XZ   @977
   ?get_shape_name@GMapOval@@UBEQBDXZ   @978
   ?get_shape_name@GMapPoly@@UBEQBDXZ   @979
   ?get_shape_name@GMapRect@@UBEQBDXZ   @980
   ?get_shape_type@GMapArea@@UBE?BW4MapAreaType@1@XZ   @981
   ?get_shape_type@GMapOval@@UBE?BW4MapAreaType@GMapArea@@XZ   @982
   ?get_shape_type@GMapPoly@@UBE?BW4MapAreaType@GMapArea@@XZ   @983
   ?get_shape_type@GMapRect@@UBE?BW4MapAreaType@GMapArea@@XZ   @984
   ?get_xmax@GMapArea@@QBEHXZ   @985
   ?get_xmin@GMapArea@@QBEHXZ   @986
   ?get_xmltag@GMapOval@@UBE?AVGUTF8String@@H@Z   @987
   ?get_xmltag@GMapPoly@@UBE?AVGUTF8String@@H@Z   @988
   ?get_xmltag@GMapRect@@UBE?AVGUTF8String@@H@Z   @989
   ?get_ymax@GMapArea@@QBEHXZ   @990
   ?get_ymin@GMapArea@@QBEHXZ   @991
   ?gma_check_object@GMapOval@@MBEQBDXZ   @992
   ?gma_check_object@GMapPoly@@MBEQBDXZ   @993
   ?gma_check_object@GMapRect@@MBEQBDXZ   @994
   ?gma_get_xmax@GMapOval@@MBEHXZ   @995
   ?gma_get_xmax@GMapPoly@@MBEHXZ   @996
   ?gma_get_xmax@GMapRect@@MBEHXZ   @997
   ?gma_get_xmin@GMapOval@@MBEHXZ   @998
   ?gma_get_xmin@GMapPoly@@MBEHXZ   @999
   ?gma_get_xmin@GMapRect@@MBEHXZ   @1000
   ?gma_get_ymax@GMapOval@@MBEHXZ   @1001
   ?gma_get_ymax@GMapPoly@@MBEHXZ   @1002
   ?gma_get_ymax@GMapRect@@MBEHXZ   @1003
   ?gma_get_ymin@GMapOval@@MBEHXZ   @1004
   ?gma_get_ymin@GMapPoly@@MBEHXZ   @1005
   ?gma_get_ymin@GMapRect@@MBEHXZ   @1006
   ?gma_is_point_inside@GMapOval@@MBE_NHH@Z   @1007
   ?gma_is_point_inside@GMapPoly@@MBE_NHH@Z   @1008
   ?gma_is_point_inside@GMapRect@@MBE_NHH@Z   @1009
   ?gma_move@GMapOval@@MAEXHH@Z   @1010
   ?gma_move@GMapPoly@@MAEXHH@Z   @1011
   ?gma_move@GMapRect@@MAEXHH@Z   @1012
   ?gma_print@GMapOval@@MAE?AVGUTF8String@@XZ   @1013
   ?gma_print@GMapPoly@@MAE?AVGUTF8String@@XZ   @1014
   ?gma_print@GMapRect@@MAE?AVGUTF8String@@XZ   @1015
   ?gma_resize@GMapOval@@MAEXHH@Z   @1016
   ?gma_resize@GMapPoly@@MAEXHH@Z   @1017
   ?gma_resize@GMapRect@@MAEXHH@Z   @1018
   ?gma_transform@GMapOval@@MAEXABVGRect@@@Z   @1019
   ?gma_transform@GMapPoly@@MAEXABVGRect@@@Z   @1020
   ?gma_transform@GMapRect@@MAEXABVGRect@@@Z   @1021
   ?initialize@GMapOval@@AAEXXZ   @1022
   ?initialize_bounds@GMapArea@@AAEXXZ   @1023
   ?is_point_inside@GMapArea@@QBE_NHH@Z   @1024
   ?is_projection_on_segment@GMapPoly@@CA_NHHHHHH@Z   @1025
   ?map@GMapOval@@UAEXAAVGRectMapper@@@Z   @1026
   ?map@GMapPoly@@UAEXAAVGRectMapper@@@Z   @1027
   ?map@GMapRect@@UAEXAAVGRectMapper@@@Z   @1028
   ?move@GMapArea@@QAEXHH@Z   @1029
   ?move_vertex@GMapPoly@@QAEXHHH@Z   @1030
   ?optimize_data@GMapPoly@@QAEXXZ   @1031
   ?print@GMapArea@@QAE?AVGUTF8String@@XZ   @1032
   ?resize@GMapArea@@QAEXHH@Z   @1033
   ?transform@GMapArea@@QAEXABVGRect@@@Z   @1034
   ?unmap@GMapOval@@UAEXAAVGRectMapper@@@Z   @1035
   ?unmap@GMapPoly@@UAEXAAVGRectMapper@@@Z   @1036
   ?unmap@GMapRect@@UAEXAAVGRectMapper@@@Z   @1037
   ??0?$ArrayBaseT@D@@IAE@XZ   @1038
   ??1?$ArrayBaseT@D@@UAE@XZ   @1039
   ??1?$GP@VGIFFChunk@@@@QAE@XZ   @1040
   ??1?$GP@VGIFFManager@@@@QAE@XZ   @1041
   ??1?$GP@VIFFByteStream@@@@QAE@XZ   @1042
   ??1?$GPList@VGIFFChunk@@@@QAE@XZ   @1043
   ??1?$TArray@D@@UAE@XZ   @1044
   ??1GIFFChunk@@UAE@XZ   @1045
   ??1GIFFManager@@UAE@XZ   @1046
   ??A?$GListTemplate@V?$GP@VGIFFChunk@@@@VGPBase@@@@QAEAAV?$GP@VGIFFChunk@@@@VGPosition@@@Z   @1047
   ??C?$GP@VGIFFChunk@@@@QBEPAVGIFFChunk@@XZ   @1048
   ?add_chunk@GIFFChunk@@QAEXABV?$GP@VGIFFChunk@@@@H@Z   @1049
   ?add_chunk@GIFFManager@@QAEXVGUTF8String@@ABV?$GP@VGIFFChunk@@@@H@Z   @1050
   ?add_chunk@GIFFManager@@QAEXVGUTF8String@@ABV?$TArray@D@@@Z   @1051
   ?check_name@GIFFChunk@@QAE_NVGUTF8String@@@Z   @1052
   ?create@GIFFChunk@@SA?AV?$GP@VGIFFChunk@@@@ABVGUTF8String@@@Z   @1053
   ?create@GIFFChunk@@SA?AV?$GP@VGIFFChunk@@@@ABVGUTF8String@@ABV?$TArray@D@@@Z   @1054
   ?create@GIFFChunk@@SA?AV?$GP@VGIFFChunk@@@@XZ   @1055
   ?create@GIFFManager@@SA?AV?$GP@VGIFFManager@@@@ABVGUTF8String@@@Z   @1056
   ?create@GIFFManager@@SA?AV?$GP@VGIFFManager@@@@XZ   @1057
   ?decode_name@GIFFChunk@@CA?AVGUTF8String@@ABV2@AAH@Z   @1058
   ?del_chunk@GIFFChunk@@QAEXABVGUTF8String@@@Z   @1059
   ?del_chunk@GIFFManager@@QAEXVGUTF8String@@@Z   @1060
   ?del_chunk@GIFFManager@@QAEXXZ   @1061
   ?destroy@?$TArray@D@@CAXPAXHH@Z   @1062
   ?get_chunk@GIFFChunk@@QAE?AV?$GP@VGIFFChunk@@@@ABVGUTF8String@@PAH@Z   @1063
   ?get_chunk@GIFFManager@@QAE?AV?$GP@VGIFFChunk@@@@VGUTF8String@@PAH@Z   @1064
   ?get_chunks_number@GIFFChunk@@QAEHABVGUTF8String@@@Z   @1065
   ?get_chunks_number@GIFFChunk@@QAEHXZ   @1066
   ?get_chunks_number@GIFFManager@@QAEHABVGUTF8String@@@Z   @1067
   ?get_chunks_number@GIFFManager@@QAEHXZ   @1068
   ?get_full_name@GIFFChunk@@QBE?AVGUTF8String@@XZ   @1069
   ?get_name@GIFFChunk@@QBE?AVGUTF8String@@XZ   @1070
   ?get_type@GIFFChunk@@QBE?AVGUTF8String@@XZ   @1071
   ?init1@?$TArray@D@@CAXPAXHH@Z   @1072
   ?init2@?$TArray@D@@CAXPAXHHPBXHH@Z   @1073
   ?insert@?$TArray@D@@CAXPAXHHPBXH@Z   @1074
   ?insert_before@?$GListTemplate@V?$GP@VGIFFChunk@@@@VGPBase@@@@QAEXVGPosition@@ABV?$GP@VGIFFChunk@@@@@Z   @1075
   ?load_chunk@GIFFManager@@QAEXAAVIFFByteStream@@V?$GP@VGIFFChunk@@@@@Z   @1076
   ?load_file@GIFFManager@@QAEXABV?$TArray@D@@@Z   @1077
   ?load_file@GIFFManager@@QAEXV?$GP@VByteStream@@@@@Z   @1078
   ?newnode@?$GListImpl@VGPBase@@@@KAPAUNode@@ABVGPBase@@@Z   @1079
   ?save@GIFFChunk@@QAEXAAVIFFByteStream@@_N@Z   @1080
   ?save_file@GIFFManager@@QAEXAAV?$TArray@D@@@Z   @1081
   ?save_file@GIFFManager@@QAEXV?$GP@VByteStream@@@@@Z   @1082
   ?set_name@GIFFChunk@@QAEXVGUTF8String@@@Z   @1083
   ??0GException@@QAE@ABV0@@Z   @1084
   ??0GException@@QAE@PBD0H0W4source_type@0@@Z   @1085
   ??0GException@@QAE@XZ   @1086
   ??1GException@@UAE@XZ   @1087
   ??4GException@@QAEAAV0@ABV0@@Z   @1088
   ??_R0?AVGException@@@8   @1089
   ?cmp_cause@GException@@QBEHQBD@Z   @1090
   ?cmp_cause@GException@@SAHQBD0@Z   @1091
   ?exthrow@GExceptionHandler@@SAXABVGException@@@Z   @1092
   ?get_cause@GException@@QBEPBDXZ   @1093
   ?outofmemory@GException@@2QBDB   @1094
   ?perror@GException@@QBEXXZ   @1095
   ?rethrow@GExceptionHandler@@SAXXZ   @1096
   ??0GArrayBase@@QAE@ABUTraits@@@Z   @1097
   ??0GArrayBase@@QAE@ABUTraits@@HH@Z   @1098
   ??0GArrayBase@@QAE@ABV0@@Z   @1099
   ??0GListBase@@IAE@ABUTraits@@@Z   @1100
   ??0GListBase@@IAE@ABV0@@Z   @1101
   ??0GSetBase@@IAE@ABUTraits@@@Z   @1102
   ??0GSetBase@@IAE@ABV0@@Z   @1103
   ??1?$GPBuffer@PAUHNode@@@@QAE@XZ   @1104
   ??1GArrayBase@@QAE@XZ   @1105
   ??1GListBase@@QAE@XZ   @1106
   ??1GSetBase@@QAE@XZ   @1107
   ??4GArrayBase@@QAEAAV0@ABV0@@Z   @1108
   ??4GListBase@@QAEAAV0@ABV0@@Z   @1109
   ??4GSetBase@@QAEAAV0@ABV0@@Z   @1110
   ?append@GListBase@@IAEXPAUNode@@@Z   @1111
   ?del@GArrayBase@@QAEXHH@Z   @1112
   ?del@GListBase@@IAEXAAVGPosition@@@Z   @1113
   ?del@GSetBase@@QAEXAAVGPosition@@@Z   @1114
   ?deletenode@GSetBase@@IAEXPAUHNode@@@Z   @1115
   ?empty@GArrayBase@@QAEXXZ   @1116
   ?empty@GListBase@@QAEXXZ   @1117
   ?empty@GSetBase@@QAEXXZ   @1118
   ?firstpos@GSetBase@@QBE?AVGPosition@@XZ   @1119
   ?hashnode@GSetBase@@IBEPAUHNode@@I@Z   @1120
   ?ins@GArrayBase@@QAEXHPBXH@Z   @1121
   ?insert_after@GListBase@@IAEXVGPosition@@PAUNode@@@Z   @1122
   ?insert_before@GListBase@@IAEXVGPosition@@AAV1@AAV2@@Z   @1123
   ?insert_before@GListBase@@IAEXVGPosition@@PAUNode@@@Z   @1124
   ?insertnode@GSetBase@@AAEXPAUHNode@@@Z   @1125
   ?installnode@GSetBase@@IAEPAUHNode@@PAU2@@Z   @1126
   ?nth@GListBase@@QBE?AVGPosition@@I@Z   @1127
   ?prepend@GListBase@@IAEXPAUNode@@@Z   @1128
   ?rehash@GSetBase@@AAEXH@Z   @1129
   ?resize@GArrayBase@@QAEXHH@Z   @1130
   ?shift@GArrayBase@@QAEXH@Z   @1131
   ?steal@GArrayBase@@QAEXAAV1@@Z   @1132
   ?throw_invalid@GPosition@@IBEXPAX@Z   @1133
   ?touch@GArrayBase@@QAEXH@Z   @1134
   ??0GBitmap@@IAE@AAVByteStream@@H@Z   @1135
   ??0GBitmap@@IAE@ABV0@@Z   @1136
   ??0GBitmap@@IAE@ABV0@ABVGRect@@H@Z   @1137
   ??0GBitmap@@IAE@ABV0@H@Z   @1138
   ??0GBitmap@@IAE@HHH@Z   @1139
   ??0GBitmap@@IAE@XZ   @1140
   ??0GMonitorLock@@QAE@PAVGMonitor@@@Z   @1141
   ??0ZeroBuffer@GBitmap@@QAE@I@Z   @1142
   ??1?$GP@VZeroBuffer@GBitmap@@@@QAE@XZ   @1143
   ??1?$GPBuffer@PAE@@QAE@XZ   @1144
   ??1GBitmap@@UAE@XZ   @1145
   ??1ZeroBuffer@GBitmap@@UAE@XZ   @1146
   ?append_line@GBitmap@@CAXAAPAEPBEH_N@Z   @1147
   ?append_long_run@GBitmap@@CAXAAPAEH@Z   @1148
   ?binarize_grays@GBitmap@@QAEXH@Z   @1149
   ?blit@GBitmap@@QAEXPBV1@HH@Z   @1150
   ?blit@GBitmap@@QAEXPBV1@HHH@Z   @1151
   ?change_grays@GBitmap@@QAEXH@Z   @1152
   ?compress@GBitmap@@QAEXXZ   @1153
   ?decode@GBitmap@@AAEXPAE@Z   @1154
   ?destroy@GBitmap@@QAEXXZ   @1155
   ?donate_data@GBitmap@@QAEXPAEHH@Z   @1156
   ?donate_rle@GBitmap@@QAEXPAEIHH@Z   @1157
   ?encode@GBitmap@@ABEHAAPAEAAV?$GPBuffer@E@@@Z   @1158
   ?fill@GBitmap@@QAEXE@Z   @1159
   ?get_memory_usage@GBitmap@@QBEIXZ   @1160
   ?get_rle@GBitmap@@QAEPBEAAI@Z   @1161
   ?init@GBitmap@@QAEXAAVByteStream@@H@Z   @1162
   ?init@GBitmap@@QAEXABV1@ABVGRect@@H@Z   @1163
   ?init@GBitmap@@QAEXABV1@H@Z   @1164
   ?init@GBitmap@@QAEXHHH@Z   @1165
   ?makerows@GBitmap@@CAXHHPAEQAPAE@Z   @1166
   ?minborder@GBitmap@@QAEXH@Z   @1167
   ?read_integer@GBitmap@@CAIAADAAVByteStream@@@Z   @1168
   ?read_pbm_raw@GBitmap@@AAEXAAVByteStream@@@Z   @1169
   ?read_pbm_text@GBitmap@@AAEXAAVByteStream@@@Z   @1170
   ?read_pgm_raw@GBitmap@@AAEXAAVByteStream@@H@Z   @1171
   ?read_pgm_text@GBitmap@@AAEXAAVByteStream@@H@Z   @1172
   ?read_rle_raw@GBitmap@@AAEXAAVByteStream@@@Z   @1173
   ?rle_get_bitmap@GBitmap@@SAXHAAPBEPAE_N@Z   @1174
   ?rle_get_bits@GBitmap@@QBEHHPAE@Z   @1175
   ?rle_get_rect@GBitmap@@QBEHAAVGRect@@@Z   @1176
   ?rle_get_runs@GBitmap@@QBEHHPAH@Z   @1177
   ?rotate@GBitmap@@QAE?AV?$GP@VGBitmap@@@@H@Z   @1178
   ?save_pbm@GBitmap@@QAEXAAVByteStream@@H@Z   @1179
   ?save_pgm@GBitmap@@QAEXAAVByteStream@@H@Z   @1180
   ?save_rle@GBitmap@@QAEXAAVByteStream@@@Z   @1181
   ?set_grays@GBitmap@@QAEXH@Z   @1182
   ?share@GBitmap@@QAEXXZ   @1183
   ?take_data@GBitmap@@QAEPAEAAI@Z   @1184
   ?uncompress@GBitmap@@QAEXXZ   @1185
   ?zerobuffer@GBitmap@@0PAEA   @1186
   ?zeroes@GBitmap@@CA?AV?$GP@VZeroBuffer@GBitmap@@@@H@Z   @1187
   ?zerosize@GBitmap@@0HA   @1188
   ??0?$GArrayTemplate@H@@QAE@ABUTraits@@HH@Z   @1189
   ??0?$GP@VDjVuDocument@@@@QAE@ABV0@@Z   @1190
   ??0?$GP@VDjVuImage@@@@QAE@ABV0@@Z   @1191
   ??0DecodePort@DjVuToPS@@IAE@XZ   @1192
   ??0DjVuToPS@@QAE@XZ   @1193
   ??0GPBase@@QAE@PAVGPEnabled@@@Z   @1194
   ??0Options@DjVuToPS@@QAE@XZ   @1195
   ??1?$GP@VDataPool@@@@QAE@XZ   @1196
   ??1?$GP@VDecodePort@DjVuToPS@@@@QAE@XZ   @1197
   ??1?$GP@VDjVuPalette@@@@QAE@XZ   @1198
   ??1DecodePort@DjVuToPS@@UAE@XZ   @1199
   ??1GEvent@@QAE@XZ   @1200
   ??A?$GArrayTemplate@UPColor@DjVuPalette@@@@QBEABUPColor@DjVuPalette@@H@Z   @1201
   ??A?$GArrayTemplate@VJB2Blit@@@@QAEAAVJB2Blit@@H@Z   @1202
   ??A?$GListTemplate@VZone@DjVuTXT@@V12@@@QAEAAVZone@DjVuTXT@@VGPosition@@@Z   @1203
   ??C?$GP@VDjVuImage@@@@QBEPAVDjVuImage@@XZ   @1204
   ??C?$GP@VIFFByteStream@@@@QBEPAVIFFByteStream@@XZ   @1205
   ??EGPosition@@QAEAAV0@XZ   @1206
   ?create@DecodePort@DjVuToPS@@SA?AV?$GP@VDecodePort@DjVuToPS@@@@XZ   @1207
   ?decode_page@DjVuToPS@@IAE?AV?$GP@VDjVuImage@@@@V?$GP@VDjVuDocument@@@@HHH@Z   @1208
   ?get_djvu_file@DjVuDocument@@QAE?AV?$GP@VDjVuFile@@@@H_N@Z   @1209
   ?get_djvu_file@DjVuImage@@QBE?AV?$GP@VDjVuFile@@@@XZ   @1210
   ?get_init_data_pool@DjVuFile@@QBE?AV?$GP@VDataPool@@@@XZ   @1211
   ?get_page@DjVuDocument@@QAE?AV?$GP@VDjVuImage@@@@H_NPAVDjVuPort@@@Z   @1212
   ?get_url@DjVuFile@@QBE?AVGURL@@XZ   @1213
   ?inherits@DjVuPort@@UBE_NABVGUTF8String@@@Z   @1214
   ?make_gamma_ramp@DjVuToPS@@IAEXV?$GP@VDjVuImage@@@@@Z   @1215
   ?notify_decode_progress@DecodePort@DjVuToPS@@UAEXPBVDjVuPort@@N@Z   @1216
   ?notify_file_flags_changed@DecodePort@DjVuToPS@@UAEXPBVDjVuFile@@JJ@Z   @1217
   ?parse_range@DjVuToPS@@IAEXV?$GP@VDjVuDocument@@@@VGUTF8String@@AAV?$GList@H@@@Z   @1218
   ?print@DjVuToPS@@QAEXAAVByteStream@@V?$GP@VDjVuDocument@@@@@Z   @1219
   ?print@DjVuToPS@@QAEXAAVByteStream@@V?$GP@VDjVuDocument@@@@VGUTF8String@@@Z   @1220
   ?print@DjVuToPS@@QAEXAAVByteStream@@V?$GP@VDjVuImage@@@@ABVGRect@@2H@Z   @1221
   ?print_bg@DjVuToPS@@IAEXAAVByteStream@@V?$GP@VDjVuImage@@@@ABVGRect@@@Z   @1222
   ?print_fg@DjVuToPS@@IAEXAAVByteStream@@V?$GP@VDjVuImage@@@@ABVGRect@@@Z   @1223
   ?print_fg_2layer@DjVuToPS@@IAEXAAVByteStream@@V?$GP@VDjVuImage@@@@ABVGRect@@PAE@Z   @1224
   ?print_fg_3layer@DjVuToPS@@IAEXAAVByteStream@@V?$GP@VDjVuImage@@@@ABVGRect@@PAE@Z   @1225
   ?print_image@DjVuToPS@@IAEXAAVByteStream@@V?$GP@VDjVuImage@@@@ABVGRect@@V?$GP@VDjVuTXT@@@@@Z   @1226
   ?print_image_lev1@DjVuToPS@@IAEXAAVByteStream@@V?$GP@VDjVuImage@@@@ABVGRect@@@Z   @1227
   ?print_image_lev2@DjVuToPS@@IAEXAAVByteStream@@V?$GP@VDjVuImage@@@@ABVGRect@@@Z   @1228
   ?process_double_page@DjVuToPS@@IAEXAAVByteStream@@V?$GP@VDjVuDocument@@@@PAXHH@Z   @1229
   ?process_single_page@DjVuToPS@@IAEXAAVByteStream@@V?$GP@VDjVuDocument@@@@HHHH@Z   @1230
   ?set_bookletalign@Options@DjVuToPS@@QAEXH@Z   @1231
   ?set_bookletfold@Options@DjVuToPS@@QAEXHH@Z   @1232
   ?set_bookletmax@Options@DjVuToPS@@QAEXH@Z   @1233
   ?set_bookletmode@Options@DjVuToPS@@QAEXW4BookletMode@12@@Z   @1234
   ?set_color@Options@DjVuToPS@@QAEX_N@Z   @1235
   ?set_copies@Options@DjVuToPS@@QAEXH@Z   @1236
   ?set_cropmarks@Options@DjVuToPS@@QAEX_N@Z   @1237
   ?set_dec_progress_cb@DjVuToPS@@QAEXP6AXNPAX@Z0@Z   @1238
   ?set_format@Options@DjVuToPS@@QAEXW4Format@12@@Z   @1239
   ?set_frame@Options@DjVuToPS@@QAEX_N@Z   @1240
   ?set_gamma@Options@DjVuToPS@@QAEXN@Z   @1241
   ?set_info_cb@DjVuToPS@@QAEXP6AXHHHW4Stage@1@PAX@Z1@Z   @1242
   ?set_level@Options@DjVuToPS@@QAEXH@Z   @1243
   ?set_mode@Options@DjVuToPS@@QAEXW4Mode@12@@Z   @1244
   ?set_orientation@Options@DjVuToPS@@QAEXW4Orientation@12@@Z   @1245
   ?set_prn_progress_cb@DjVuToPS@@QAEXP6AXNPAX@Z0@Z   @1246
   ?set_refresh_cb@DjVuToPS@@QAEXP6AXPAX@Z0@Z   @1247
   ?set_sRGB@Options@DjVuToPS@@QAEX_N@Z   @1248
   ?set_text@Options@DjVuToPS@@QAEX_N@Z   @1249
   ?set_zoom@Options@DjVuToPS@@QAEXH@Z   @1250
   ?store_doc_prolog@DjVuToPS@@IAEXAAVByteStream@@HHPAVGRect@@@Z   @1251
   ?store_doc_setup@DjVuToPS@@IAEXAAVByteStream@@@Z   @1252
   ?store_doc_trailer@DjVuToPS@@IAEXAAVByteStream@@@Z   @1253
   ?store_page_setup@DjVuToPS@@IAEXAAVByteStream@@HABVGRect@@H@Z   @1254
   ?store_page_trailer@DjVuToPS@@IAEXAAVByteStream@@@Z   @1255
   ??0?$GList@VZone@DjVuTXT@@@@QAE@ABV0@@Z   @1256
   ??0?$GListImpl@PAVZone@DjVuTXT@@@@IAE@XZ   @1257
   ??0?$GListImpl@VGRect@@@@IAE@XZ   @1258
   ??0?$GListImpl@VZone@DjVuTXT@@@@IAE@XZ   @1259
   ??0?$GListImpl@VZone@DjVuTXT@@@@QAE@ABV0@@Z   @1260
   ??0?$GListTemplate@PAVZone@DjVuTXT@@PAV12@@@QAE@XZ   @1261
   ??0Zone@DjVuTXT@@QAE@XZ   @1262
   ??1?$GList@PAVZone@DjVuTXT@@@@QAE@XZ   @1263
   ??1?$GList@VGRect@@@@QAE@XZ   @1264
   ??1?$ListNode@VZone@DjVuTXT@@@@QAE@XZ   @1265
   ??1Zone@DjVuTXT@@QAE@XZ   @1266
   ??A?$GListTemplate@PAVZone@DjVuTXT@@PAV12@@@QAEAAPAVZone@DjVuTXT@@VGPosition@@@Z   @1267
   ??A?$GListTemplate@VZone@DjVuTXT@@V12@@@QBEABVZone@DjVuTXT@@VGPosition@@@Z   @1268
   ?append_child@Zone@DjVuTXT@@QAEPAV12@XZ   @1269
   ?cleartext@Zone@DjVuTXT@@AAEXXZ   @1270
   ?copy@?$NormTraits@U?$ListNode@PAVZone@DjVuTXT@@@@@@SAXPAXPBXHH@Z   @1271
   ?copy@?$NormTraits@U?$ListNode@VGRect@@@@@@SAXPAXPBXHH@Z   @1272
   ?copy@?$NormTraits@U?$ListNode@VZone@DjVuTXT@@@@@@SAXPAXPBXHH@Z   @1273
   ?copy@DjVuTXT@@QBE?AV?$GP@VDjVuTXT@@@@XZ   @1274
   ?copy@DjVuText@@QBE?AV?$GP@VDjVuText@@@@XZ   @1275
   ?decode@DjVuTXT@@QAEXABV?$GP@VByteStream@@@@@Z   @1276
   ?decode@DjVuText@@QAEXABV?$GP@VByteStream@@@@@Z   @1277
   ?decode@Zone@DjVuTXT@@AAEXABV?$GP@VByteStream@@@@HPBV12@1@Z   @1278
   ?encode@DjVuTXT@@QBEXABV?$GP@VByteStream@@@@@Z   @1279
   ?encode@DjVuText@@QAEXABV?$GP@VByteStream@@@@@Z   @1280
   ?encode@Zone@DjVuTXT@@ABEXABV?$GP@VByteStream@@@@PBV12@1@Z   @1281
   ?end_of_column@DjVuTXT@@2DB   @1282
   ?end_of_line@DjVuTXT@@2DB   @1283
   ?end_of_paragraph@DjVuTXT@@2DB   @1284
   ?end_of_region@DjVuTXT@@2DB   @1285
   ?find_text_in_rect@DjVuTXT@@QBE?AV?$GList@PAVZone@DjVuTXT@@@@VGRect@@AAVGUTF8String@@@Z   @1286
   ?find_text_with_rect@DjVuTXT@@QBE?AV?$GList@VGRect@@@@ABVGRect@@AAVGUTF8String@@H@Z   @1287
   ?find_zones@Zone@DjVuTXT@@QBEXAAV?$GList@PAVZone@DjVuTXT@@@@HH@Z   @1288
   ?fini@?$NormTraits@U?$ListNode@PAVZone@DjVuTXT@@@@@@SAXPAXH@Z   @1289
   ?fini@?$NormTraits@U?$ListNode@VGRect@@@@@@SAXPAXH@Z   @1290
   ?fini@?$NormTraits@U?$ListNode@VZone@DjVuTXT@@@@@@SAXPAXH@Z   @1291
   ?get_memory_usage@DjVuTXT@@QBEIXZ   @1292
   ?get_smallest@Zone@DjVuTXT@@QBEXAAV?$GList@VGRect@@@@@Z   @1293
   ?get_smallest@Zone@DjVuTXT@@QBEXAAV?$GList@VGRect@@@@H@Z   @1294
   ?get_text_with_rect@Zone@DjVuTXT@@QBEXABVGRect@@AAH1@Z   @1295
   ?get_xmlText@DjVuTXT@@QBE?AVGUTF8String@@H@Z   @1296
   ?get_xmlText@DjVuText@@QBE?AVGUTF8String@@H@Z   @1297
   ?get_zones@DjVuTXT@@QBEXHPBVZone@1@AAV?$GList@PAVZone@DjVuTXT@@@@@Z   @1298
   ?has_valid_zones@DjVuTXT@@QBEHXZ   @1299
   ?init@?$NormTraits@U?$ListNode@PAVZone@DjVuTXT@@@@@@SAXPAXH@Z   @1300
   ?init@?$NormTraits@U?$ListNode@VGRect@@@@@@SAXPAXH@Z   @1301
   ?init@?$NormTraits@U?$ListNode@VZone@DjVuTXT@@@@@@SAXPAXH@Z   @1302
   ?lea@?$NormTraits@U?$ListNode@PAVZone@DjVuTXT@@@@@@SAPAXPAXH@Z   @1303
   ?lea@?$NormTraits@U?$ListNode@VGRect@@@@@@SAPAXPAXH@Z   @1304
   ?lea@?$NormTraits@U?$ListNode@VZone@DjVuTXT@@@@@@SAPAXPAXH@Z   @1305
   ?memuse@Zone@DjVuTXT@@ABEIXZ   @1306
   ?newnode@?$GListImpl@PAVZone@DjVuTXT@@@@KAPAUNode@@ABQAVZone@DjVuTXT@@@Z   @1307
   ?newnode@?$GListImpl@VGRect@@@@KAPAUNode@@ABVGRect@@@Z   @1308
   ?normalize_text@DjVuTXT@@QAEXXZ   @1309
   ?normtext@Zone@DjVuTXT@@AAEXPBDAAVGUTF8String@@@Z   @1310
   ?theTraits@?1??traits@?$NormTraits@U?$ListNode@PAVZone@DjVuTXT@@@@@@SAABUTraits@@XZ@4U3@B   @1311
   ?theTraits@?1??traits@?$NormTraits@U?$ListNode@VGRect@@@@@@SAABUTraits@@XZ@4U3@B   @1312
   ?theTraits@?1??traits@?$NormTraits@U?$ListNode@VZone@DjVuTXT@@@@@@SAABUTraits@@XZ@4U3@B   @1313
   ?version@Zone@DjVuTXT@@0HB   @1314
   ?writeText@DjVuTXT@@QBEXAAVByteStream@@H@Z   @1315
   ?writeText@DjVuText@@QBEXAAVByteStream@@H@Z   @1316
   ??0?$GArrayTemplate@V?$GList@PBX@@@@QAE@ABUTraits@@HH@Z   @1317
   ??0?$GListImpl@PAX@@IAE@XZ   @1318
   ??0?$GMap@PBXPAX@@QAE@XZ   @1319
   ??0?$GMap@VGUTF8String@@PBX@@QAE@XZ   @1320
   ??0?$GMapTemplate@PBXPAXPAX@@QAE@XZ   @1321
   ??0DjVuPort@@QAE@ABV0@@Z   @1322
   ??0DjVuPort@@QAE@XZ   @1323
   ??0DjVuPortcaster@@QAE@XZ   @1324
   ??1?$GArray@V?$GList@PBX@@@@QAE@XZ   @1325
   ??1?$GList@PBX@@QAE@XZ   @1326
   ??1?$GMap@PBXPAX@@QAE@XZ   @1327
   ??1?$GMap@VGUTF8String@@PBX@@QAE@XZ   @1328
   ??1?$GP@VDjVuPort@@@@QAE@XZ   @1329
   ??1?$GPList@VDjVuPort@@@@QAE@XZ   @1330
   ??1?$MapNode@VGUTF8String@@PBX@@QAE@XZ   @1331
   ??1DjVuPort@@UAE@XZ   @1332
   ??1DjVuPortcaster@@UAE@XZ   @1333
   ??2DjVuPort@@SAPAXI@Z   @1334
   ??3DjVuPort@@SAXPAX@Z   @1335
   ??4DjVuPort@@QAEAAV0@ABV0@@Z   @1336
   ??A?$GArrayTemplate@V?$GList@PBX@@@@QAEAAV?$GList@PBX@@H@Z   @1337
   ??A?$GListTemplate@PAXPAX@@QAEAAPAXVGPosition@@@Z   @1338
   ??A?$GListTemplate@PBXPBX@@QAEAAPBXVGPosition@@@Z   @1339
   ??A?$GListTemplate@V?$GP@VDjVuPort@@@@VGPBase@@@@QAEAAV?$GP@VDjVuPort@@@@VGPosition@@@Z   @1340
   ??C?$GP@VDjVuPort@@@@QBEPAVDjVuPort@@XZ   @1341
   ?add_alias@DjVuPortcaster@@QAEXPBVDjVuPort@@ABVGUTF8String@@@Z   @1342
   ?add_data@DjVuMemoryPort@@QAEXABVGURL@@ABV?$GP@VDataPool@@@@@Z   @1343
   ?add_route@DjVuPortcaster@@QAEXPBVDjVuPort@@PAV2@@Z   @1344
   ?add_to_closure@DjVuPortcaster@@AAEXAAV?$GMap@PBXPAX@@PBVDjVuPort@@H@Z   @1345
   ?alias_to_port@DjVuPortcaster@@QAE?AV?$GP@VDjVuPort@@@@ABVGUTF8String@@@Z   @1346
   ?clear_aliases@DjVuPortcaster@@QAEXPBVDjVuPort@@@Z   @1347
   ?clear_all_aliases@DjVuPortcaster@@SAXXZ   @1348
   ?compute_closure@DjVuPortcaster@@AAEXPBVDjVuPort@@AAV?$GPList@VDjVuPort@@@@_N@Z   @1349
   ?contains@?$GSetImpl@PBX@@QBE?AVGPosition@@ABQBX@Z   @1350
   ?copy@?$NormTraits@U?$ListNode@PAX@@@@SAXPAXPBXHH@Z   @1351
   ?copy@?$NormTraits@U?$ListNode@PBX@@@@SAXPAXPBXHH@Z   @1352
   ?copy@?$NormTraits@U?$MapNode@PBXPAX@@@@SAXPAXPBXHH@Z   @1353
   ?copy@?$NormTraits@U?$MapNode@VGUTF8String@@PBX@@@@SAXPAXPBXHH@Z   @1354
   ?copy@?$NormTraits@V?$GList@PBX@@@@SAXPAXPBXHH@Z   @1355
   ?copy_routes@DjVuPortcaster@@QAEXPAVDjVuPort@@PBV2@@Z   @1356
   ?corpse_head@DjVuPort@@0PAVDjVuPortCorpse@1@A   @1357
   ?corpse_lock@DjVuPort@@0PAVGCriticalSection@@A   @1358
   ?corpse_num@DjVuPort@@0HA   @1359
   ?corpse_tail@DjVuPort@@0PAVDjVuPortCorpse@1@A   @1360
   ?del_port@DjVuPortcaster@@QAEXPBVDjVuPort@@@Z   @1361
   ?del_route@DjVuPortcaster@@QAEXPBVDjVuPort@@PAV2@@Z   @1362
   ?fini@?$NormTraits@U?$ListNode@PAX@@@@SAXPAXH@Z   @1363
   ?fini@?$NormTraits@U?$ListNode@PBX@@@@SAXPAXH@Z   @1364
   ?fini@?$NormTraits@U?$MapNode@PBXPAX@@@@SAXPAXH@Z   @1365
   ?fini@?$NormTraits@U?$MapNode@VGUTF8String@@PBX@@@@SAXPAXH@Z   @1366
   ?fini@?$NormTraits@V?$GList@PBX@@@@SAXPAXH@Z   @1367
   ?get@?$GSetImpl@PBX@@IBEPAUHNode@@ABQBX@Z   @1368
   ?get@?$GSetImpl@VGURL@@@@IBEPAUHNode@@ABVGURL@@@Z   @1369
   ?get_or_create@?$GMapImpl@PBXPAX@@IAEPAUHNode@@ABQBX@Z   @1370
   ?get_portcaster@DjVuPort@@SAPAVDjVuPortcaster@@XZ   @1371
   ?id_to_file@DjVuPort@@UAE?AV?$GP@VDjVuFile@@@@PBV1@ABVGUTF8String@@@Z   @1372
   ?id_to_file@DjVuPortcaster@@UAE?AV?$GP@VDjVuFile@@@@PBVDjVuPort@@ABVGUTF8String@@@Z   @1373
   ?id_to_url@DjVuPort@@UAE?AVGURL@@PBV1@ABVGUTF8String@@@Z   @1374
   ?id_to_url@DjVuPortcaster@@UAE?AVGURL@@PBVDjVuPort@@ABVGUTF8String@@@Z   @1375
   ?init@?$NormTraits@U?$ListNode@PAX@@@@SAXPAXH@Z   @1376
   ?init@?$NormTraits@U?$ListNode@PBX@@@@SAXPAXH@Z   @1377
   ?init@?$NormTraits@U?$MapNode@PBXPAX@@@@SAXPAXH@Z   @1378
   ?init@?$NormTraits@U?$MapNode@VGUTF8String@@PBX@@@@SAXPAXH@Z   @1379
   ?init@?$NormTraits@V?$GList@PBX@@@@SAXPAXH@Z   @1380
   ?is_port_alive@DjVuPortcaster@@QAE?AV?$GP@VDjVuPort@@@@PAVDjVuPort@@@Z   @1381
   ?lea@?$NormTraits@U?$ListNode@PAX@@@@SAPAXPAXH@Z   @1382
   ?lea@?$NormTraits@U?$ListNode@PBX@@@@SAPAXPAXH@Z   @1383
   ?lea@?$NormTraits@U?$MapNode@PBXPAX@@@@SAPAXPAXH@Z   @1384
   ?lea@?$NormTraits@U?$MapNode@VGUTF8String@@PBX@@@@SAPAXPAXH@Z   @1385
   ?lea@?$NormTraits@V?$GList@PBX@@@@SAPAXPAXH@Z   @1386
   ?newnode@?$GListImpl@PBX@@KAPAUNode@@ABQBX@Z   @1387
   ?notify_chunk_done@DjVuPort@@UAEXPBV1@ABVGUTF8String@@@Z   @1388
   ?notify_chunk_done@DjVuPortcaster@@UAEXPBVDjVuPort@@ABVGUTF8String@@@Z   @1389
   ?notify_decode_progress@DjVuPort@@UAEXPBV1@M@Z   @1390
   ?notify_decode_progress@DjVuPortcaster@@UAEXPBVDjVuPort@@M@Z   @1391
   ?notify_doc_flags_changed@DjVuPort@@UAEXPBVDjVuDocument@@JJ@Z   @1392
   ?notify_doc_flags_changed@DjVuPortcaster@@UAEXPBVDjVuDocument@@JJ@Z   @1393
   ?notify_error@DjVuPort@@UAE_NPBV1@ABVGUTF8String@@@Z   @1394
   ?notify_error@DjVuPortcaster@@UAE_NPBVDjVuPort@@ABVGUTF8String@@@Z   @1395
   ?notify_error@DjVuSimplePort@@UAE_NPBVDjVuPort@@ABVGUTF8String@@@Z   @1396
   ?notify_file_flags_changed@DjVuPort@@UAEXPBVDjVuFile@@JJ@Z   @1397
   ?notify_file_flags_changed@DjVuPortcaster@@UAEXPBVDjVuFile@@JJ@Z   @1398
   ?notify_redisplay@DjVuPort@@UAEXPBVDjVuImage@@@Z   @1399
   ?notify_redisplay@DjVuPortcaster@@UAEXPBVDjVuImage@@@Z   @1400
   ?notify_relayout@DjVuPort@@UAEXPBVDjVuImage@@@Z   @1401
   ?notify_relayout@DjVuPortcaster@@UAEXPBVDjVuImage@@@Z   @1402
   ?notify_status@DjVuPort@@UAE_NPBV1@ABVGUTF8String@@@Z   @1403
   ?notify_status@DjVuPortcaster@@UAE_NPBVDjVuPort@@ABVGUTF8String@@@Z   @1404
   ?notify_status@DjVuSimplePort@@UAE_NPBVDjVuPort@@ABVGUTF8String@@@Z   @1405
   ?prefix_to_ports@DjVuPortcaster@@QAE?AV?$GPList@VDjVuPort@@@@ABVGUTF8String@@@Z   @1406
   ?request_data@DjVuMemoryPort@@UAE?AV?$GP@VDataPool@@@@PBVDjVuPort@@ABVGURL@@@Z   @1407
   ?request_data@DjVuPort@@UAE?AV?$GP@VDataPool@@@@PBV1@ABVGURL@@@Z   @1408
   ?request_data@DjVuPortcaster@@UAE?AV?$GP@VDataPool@@@@PBVDjVuPort@@ABVGURL@@@Z   @1409
   ?request_data@DjVuSimplePort@@UAE?AV?$GP@VDataPool@@@@PBVDjVuPort@@ABVGURL@@@Z   @1410
   ?search@?$GListImpl@PAX@@IBEHABQAXAAVGPosition@@@Z   @1411
   ?theTraits@?1??traits@?$NormTraits@U?$ListNode@PAX@@@@SAABUTraits@@XZ@4U3@B   @1412
   ?theTraits@?1??traits@?$NormTraits@U?$ListNode@PBX@@@@SAABUTraits@@XZ@4U3@B   @1413
   ?theTraits@?1??traits@?$NormTraits@U?$MapNode@PBXPAX@@@@SAABUTraits@@XZ@4U3@B   @1414
   ?theTraits@?1??traits@?$NormTraits@U?$MapNode@VGUTF8String@@PBX@@@@SAABUTraits@@XZ@4U3@B   @1415
   ?theTraits@?1??traits@?$NormTraits@V?$GList@PBX@@@@SAABUTraits@@XZ@4U3@B   @1416
   ??0?$GListImpl@UPBox@@@@IAE@XZ   @1417
   ??0?$GMapImpl@HH@@IAE@XZ   @1418
   ??0DjVuPalette@@IAE@XZ   @1419
   ??0DjVuPalette@@QAE@ABV0@@Z   @1420
   ??1?$GList@UPBox@@@@QAE@XZ   @1421
   ??1?$GMap@HH@@QAE@XZ   @1422
   ??1?$GTArray@F@@QAE@XZ   @1423
   ??1?$GTArray@UGPixel@@@@QAE@XZ   @1424
   ??1?$GTArray@UPColor@DjVuPalette@@@@QAE@XZ   @1425
   ??1?$GTArray@UPData@@@@QAE@XZ   @1426
   ??1DjVuPalette@@UAE@XZ   @1427
   ??4DjVuPalette@@QAEAAV0@ABV0@@Z   @1428
   ??A?$GArrayTemplate@UPColor@DjVuPalette@@@@QAEAAUPColor@DjVuPalette@@H@Z   @1429
   ??A?$GListTemplate@UPBox@@U1@@@QAEAAUPBox@@VGPosition@@@Z   @1430
   ?allocate_hist@DjVuPalette@@AAEXXZ   @1431
   ?allocate_pmap@DjVuPalette@@AAEXXZ   @1432
   ?bcomp@DjVuPalette@@CAHPBX0@Z   @1433
   ?color_correct@DjVuPalette@@QAEXN@Z   @1434
   ?color_to_index_slow@DjVuPalette@@AAEHPBE@Z   @1435
   ?compute_palette@DjVuPalette@@QAEHHH@Z   @1436
   ?compute_palette_and_quantize@DjVuPalette@@QAEHAAVGPixmap@@HH@Z   @1437
   ?compute_pixmap_palette@DjVuPalette@@QAEHABVGPixmap@@HH@Z   @1438
   ?contains@?$GSetImpl@H@@QBE?AVGPosition@@ABH@Z   @1439
   ?copy@?$NormTraits@U?$ListNode@UPBox@@@@@@SAXPAXPBXHH@Z   @1440
   ?copy@?$NormTraits@U?$MapNode@HH@@@@SAXPAXPBXHH@Z   @1441
   ?copy@?$TrivTraits@$01@@SAXPAXPBXHH@Z   @1442
   ?copy@?$TrivTraits@$02@@SAXPAXPBXHH@Z   @1443
   ?decode@DjVuPalette@@QAEXV?$GP@VByteStream@@@@@Z   @1444
   ?decode_rgb_entries@DjVuPalette@@QAEXAAVByteStream@@H@Z   @1445
   ?encode@DjVuPalette@@QBEXV?$GP@VByteStream@@@@@Z   @1446
   ?encode_rgb_entries@DjVuPalette@@QBEXAAVByteStream@@@Z   @1447
   ?fini@?$NormTraits@U?$ListNode@UPBox@@@@@@SAXPAXH@Z   @1448
   ?fini@?$NormTraits@U?$MapNode@HH@@@@SAXPAXH@Z   @1449
   ?fini@?$TrivTraits@$01@@SAXPAXH@Z   @1450
   ?fini@?$TrivTraits@$02@@SAXPAXH@Z   @1451
   ?gcomp@DjVuPalette@@CAHPBX0@Z   @1452
   ?get@?$GSetImpl@H@@IBEPAUHNode@@ABH@Z   @1453
   ?get_or_create@?$GMapImpl@HH@@IAEPAUHNode@@ABH@Z   @1454
   ?init@?$NormTraits@U?$ListNode@UPBox@@@@@@SAXPAXH@Z   @1455
   ?init@?$NormTraits@U?$MapNode@HH@@@@SAXPAXH@Z   @1456
   ?init@?$TrivTraits@$01@@SAXPAXH@Z   @1457
   ?init@?$TrivTraits@$02@@SAXPAXH@Z   @1458
   ?insert_before@?$GListTemplate@UPBox@@U1@@@QAEXVGPosition@@AAV1@AAV2@@Z   @1459
   ?insert_before@?$GListTemplate@UPBox@@U1@@@QAEXVGPosition@@ABUPBox@@@Z   @1460
   ?lcomp@DjVuPalette@@CAHPBX0@Z   @1461
   ?lea@?$NormTraits@U?$ListNode@UPBox@@@@@@SAPAXPAXH@Z   @1462
   ?lea@?$NormTraits@U?$MapNode@HH@@@@SAPAXPAXH@Z   @1463
   ?lea@?$TrivTraits@$01@@SAPAXPAXH@Z   @1464
   ?lea@?$TrivTraits@$02@@SAPAXPAXH@Z   @1465
   ?quantize@DjVuPalette@@QAEXAAVGPixmap@@@Z   @1466
   ?rcomp@DjVuPalette@@CAHPBX0@Z   @1467
   ?theTraits@?1??traits@?$NormTraits@U?$ListNode@UPBox@@@@@@SAABUTraits@@XZ@4U3@B   @1468
   ?theTraits@?1??traits@?$NormTraits@U?$MapNode@HH@@@@SAABUTraits@@XZ@4U3@B   @1469
   ?theTraits@?1??traits@?$TrivTraits@$01@@SAABUTraits@@XZ@4U3@B   @1470
   ?theTraits@?1??traits@?$TrivTraits@$02@@SAABUTraits@@XZ@4U3@B   @1471
   ??0?$GListImpl@VGUTF8String@@@@IAE@XZ   @1472
   ??0DjVuNavDir@@IAE@AAVByteStream@@ABVGURL@@@Z   @1473
   ??0DjVuNavDir@@IAE@ABVGURL@@@Z   @1474
   ??1?$GArray@VGUTF8String@@@@QAE@XZ   @1475
   ??1?$GMap@VGURL@@H@@QAE@XZ   @1476
   ??1?$GMap@VGUTF8String@@H@@QAE@XZ   @1477
   ??1?$ListNode@VGUTF8String@@@@QAE@XZ   @1478
   ??1?$MapNode@VGURL@@H@@QAE@XZ   @1479
   ??1?$MapNode@VGUTF8String@@H@@QAE@XZ   @1480
   ??1DjVuNavDir@@UAE@XZ   @1481
   ??A?$GListTemplate@VGUTF8String@@V1@@@QAEAAVGUTF8String@@VGPosition@@@Z   @1482
   ?copy@?$NormTraits@U?$ListNode@VGUTF8String@@@@@@SAXPAXPBXHH@Z   @1483
   ?copy@?$NormTraits@U?$MapNode@VGURL@@H@@@@SAXPAXPBXHH@Z   @1484
   ?copy@?$NormTraits@U?$MapNode@VGUTF8String@@H@@@@SAXPAXPBXHH@Z   @1485
   ?copy@?$NormTraits@VGUTF8String@@@@SAXPAXPBXHH@Z   @1486
   ?decode@DjVuNavDir@@QAEXAAVByteStream@@@Z   @1487
   ?delete_page@DjVuNavDir@@QAEXH@Z   @1488
   ?encode@DjVuNavDir@@QAEXAAVByteStream@@@Z   @1489
   ?fini@?$NormTraits@U?$ListNode@VGUTF8String@@@@@@SAXPAXH@Z   @1490
   ?fini@?$NormTraits@U?$MapNode@VGURL@@H@@@@SAXPAXH@Z   @1491
   ?fini@?$NormTraits@U?$MapNode@VGUTF8String@@H@@@@SAXPAXH@Z   @1492
   ?fini@?$NormTraits@VGUTF8String@@@@SAXPAXH@Z   @1493
   ?get_or_create@?$GMapImpl@VGURL@@H@@IAEPAUHNode@@ABVGURL@@@Z   @1494
   ?get_or_create@?$GMapImpl@VGUTF8String@@H@@IAEPAUHNode@@ABVGUTF8String@@@Z   @1495
   ?get_pages_num@DjVuNavDir@@QBEHXZ   @1496
   ?init@?$NormTraits@U?$ListNode@VGUTF8String@@@@@@SAXPAXH@Z   @1497
   ?init@?$NormTraits@U?$MapNode@VGURL@@H@@@@SAXPAXH@Z   @1498
   ?init@?$NormTraits@U?$MapNode@VGUTF8String@@H@@@@SAXPAXH@Z   @1499
   ?init@?$NormTraits@VGUTF8String@@@@SAXPAXH@Z   @1500
   ?insert_page@DjVuNavDir@@QAEXHPBD@Z   @1501
   ?lea@?$NormTraits@U?$ListNode@VGUTF8String@@@@@@SAPAXPAXH@Z   @1502
   ?lea@?$NormTraits@U?$MapNode@VGURL@@H@@@@SAPAXPAXH@Z   @1503
   ?lea@?$NormTraits@U?$MapNode@VGUTF8String@@H@@@@SAPAXPAXH@Z   @1504
   ?lea@?$NormTraits@VGUTF8String@@@@SAPAXPAXH@Z   @1505
   ?name_to_page@DjVuNavDir@@QBEHPBD@Z   @1506
   ?newnode@?$GListImpl@VGUTF8String@@@@KAPAUNode@@ABVGUTF8String@@@Z   @1507
   ?page_to_name@DjVuNavDir@@QBE?AVGUTF8String@@H@Z   @1508
   ?page_to_url@DjVuNavDir@@QBE?AVGURL@@H@Z   @1509
   ?theTraits@?1??traits@?$NormTraits@U?$ListNode@VGUTF8String@@@@@@SAABUTraits@@XZ@4U3@B   @1510
   ?theTraits@?1??traits@?$NormTraits@U?$MapNode@VGURL@@H@@@@SAABUTraits@@XZ@4U3@B   @1511
   ?theTraits@?1??traits@?$NormTraits@U?$MapNode@VGUTF8String@@H@@@@SAABUTraits@@XZ@4U3@B   @1512
   ?theTraits@?1??traits@?$NormTraits@VGUTF8String@@@@SAABUTraits@@XZ@4U3@B   @1513
   ?url_to_page@DjVuNavDir@@QBEHABVGURL@@@Z   @1514
   ??0?$GP@VDjVuMessageLite@@@@QAE@XZ   @1515
   ??0?$GPList@VByteStream@@@@QAE@XZ   @1516
   ??0DjVuMessageLite@@IAE@XZ   @1517
   ??0GUTF8String@@QAE@XZ   @1518
   ??1?$GP@VDjVuMessageLite@@@@QAE@XZ   @1519
   ??1?$GPList@VByteStream@@@@QAE@XZ   @1520
   ??1DjVuMessageLite@@UAE@XZ   @1521
   ??A?$GListTemplate@V?$GP@VByteStream@@@@VGPBase@@@@QAEAAV?$GP@VByteStream@@@@VGPosition@@@Z   @1522
   ?AddByteStream@DjVuMessageLite@@IAEXABV?$GP@VByteStream@@@@@Z   @1523
   ?AddByteStreamLater@DjVuMessageLite@@SAXABV?$GP@VByteStream@@@@@Z   @1524
   ?DjVuMessageLite_LookUp@@YAXPADIPBD@Z   @1525
   ?InsertArg@DjVuMessageLite@@IBEXAAVGUTF8String@@HABV2@@Z   @1526
   ?LookUp@DjVuMessageLite@@QBE?AVGUTF8String@@ABV2@@Z   @1527
   ?LookUpID@DjVuMessageLite@@IBEXABVGUTF8String@@AAV2@1@Z   @1528
   ?LookUpSingle@DjVuMessageLite@@IBE?AVGUTF8String@@ABV2@@Z   @1529
   ?LookUpUTF8@DjVuMessageLite@@SA?AVGUTF8String@@ABV2@@Z   @1530
   ?create@DjVuMessageLite@@2P6AABV1@XZA   @1531
   ?create_lite@DjVuMessageLite@@SAABV1@XZ   @1532
   ?getByteStream@DjVuMessageLite@@KAAAV?$GPList@VByteStream@@@@XZ   @1533
   ?getDjVuMessageLite@DjVuMessageLite@@KAAAV?$GP@VDjVuMessageLite@@@@XZ   @1534
   ?perror@DjVuMessageLite@@SAXABVGUTF8String@@@Z   @1535
   ??0?$GListTemplate@V?$GMap@VGUTF8String@@V?$GP@Vlt_XMLTags@@@@@@V1@@@QAE@XZ   @1536
   ??0?$GListTemplate@VGURL@@V1@@@QAE@XZ   @1537
   ??0?$GMapImpl@VGUTF8String@@PAX@@IAE@XZ   @1538
   ??0?$GMapImpl@VGUTF8String@@V?$GP@Vlt_XMLTags@@@@@@IAE@XZ   @1539
   ??0DjVuMessage@@IAE@XZ   @1540
   ??1?$GList@V?$GMap@VGUTF8String@@V?$GP@Vlt_XMLTags@@@@@@@@QAE@XZ   @1541
   ??1?$GMap@VGUTF8String@@PAX@@QAE@XZ   @1542
   ??1?$ListNode@V?$GMap@VGUTF8String@@V?$GP@Vlt_XMLTags@@@@@@@@QAE@XZ   @1543
   ??1?$MapNode@VGUTF8String@@PAX@@QAE@XZ   @1544
   ??1DjVuMessage@@UAE@XZ   @1545
   ??A?$GListTemplate@V?$GMap@VGUTF8String@@V?$GP@Vlt_XMLTags@@@@@@V1@@@QAEAAV?$GMap@VGUTF8String@@V?$GP@Vlt_XMLTags@@@@@@VGPosition@@@Z   @1546
   ?GetProfilePaths@DjVuMessage@@SA?AV?$GList@VGURL@@@@XZ   @1547
   ?LookUpNative@DjVuMessage@@SA?AVGNativeString@@ABVGUTF8String@@@Z   @1548
   ?LookUpNative@DjVuMessageLite@@SA?AVGNativeString@@ABVGUTF8String@@@Z   @1549
   ?LookUpUTF8@DjVuMessage@@SA?AVGUTF8String@@ABV2@@Z   @1550
   ?contains@?$GMapTemplate@VGUTF8String@@PAXPAX@@QBE?AVGPosition@@ABVGUTF8String@@@Z   @1551
   ?copy@?$NormTraits@U?$ListNode@V?$GMap@VGUTF8String@@V?$GP@Vlt_XMLTags@@@@@@@@@@SAXPAXPBXHH@Z   @1552
   ?copy@?$NormTraits@U?$MapNode@VGUTF8String@@PAX@@@@SAXPAXPBXHH@Z   @1553
   ?create_full@DjVuMessage@@SAABVDjVuMessageLite@@XZ   @1554
   ?fini@?$NormTraits@U?$ListNode@V?$GMap@VGUTF8String@@V?$GP@Vlt_XMLTags@@@@@@@@@@SAXPAXH@Z   @1555
   ?fini@?$NormTraits@U?$MapNode@VGUTF8String@@PAX@@@@SAXPAXH@Z   @1556
   ?get_or_create@?$GMapImpl@VGUTF8String@@PAX@@IAEPAUHNode@@ABVGUTF8String@@@Z   @1557
   ?init@?$NormTraits@U?$ListNode@V?$GMap@VGUTF8String@@V?$GP@Vlt_XMLTags@@@@@@@@@@SAXPAXH@Z   @1558
   ?init@?$NormTraits@U?$MapNode@VGUTF8String@@PAX@@@@SAXPAXH@Z   @1559
   ?init@DjVuMessage@@IAEXXZ   @1560
   ?is_empty@GURL@@QBE_NXZ   @1561
   ?lastpos@GListBase@@QBE?AVGPosition@@XZ   @1562
   ?lea@?$NormTraits@U?$ListNode@V?$GMap@VGUTF8String@@V?$GP@Vlt_XMLTags@@@@@@@@@@SAPAXPAXH@Z   @1563
   ?lea@?$NormTraits@U?$MapNode@VGUTF8String@@PAX@@@@SAPAXPAXH@Z   @1564
   ?newnode@?$GListImpl@V?$GMap@VGUTF8String@@V?$GP@Vlt_XMLTags@@@@@@@@KAPAUNode@@ABV?$GMap@VGUTF8String@@V?$GP@Vlt_XMLTags@@@@@@@Z   @1565
   ?programname@DjVuMessage@@SAAAVGUTF8String@@XZ   @1566
   ?set_programname@DjVuMessage@@SAXABVGUTF8String@@@Z   @1567
   ?theTraits@?1??traits@?$NormTraits@U?$ListNode@V?$GMap@VGUTF8String@@V?$GP@Vlt_XMLTags@@@@@@@@@@SAABUTraits@@XZ@4U3@B   @1568
   ?theTraits@?1??traits@?$NormTraits@U?$MapNode@VGUTF8String@@PAX@@@@SAABUTraits@@XZ@4U3@B   @1569
   ?use_language@DjVuMessage@@SAXXZ   @1570
   ??0DjVuInfo@@IAE@XZ   @1571
   ?create@DjVuInfo@@SA?AV?$GP@VDjVuInfo@@@@XZ   @1572
   ?decode@DjVuInfo@@QAEXAAVByteStream@@@Z   @1573
   ?encode@DjVuInfo@@QAEXAAVByteStream@@@Z   @1574
   ?get_memory_usage@DjVuInfo@@QBEIXZ   @1575
   ?get_paramtags@DjVuInfo@@QBE?AVGUTF8String@@XZ   @1576
   ?writeParam@DjVuInfo@@QBEXAAVByteStream@@@Z   @1577
   ??0?$GArrayTemplate@UGPixel@@@@QAE@ABUTraits@@HH@Z   @1578
   ??0?$GListTemplate@HH@@QAE@XZ   @1579
   ??0?$GP@VDataPool@@@@QAE@XZ   @1580
   ??0?$GP@VDjVuAnno@@@@QAE@ABV0@@Z   @1581
   ??0?$GP@VDjVuAnno@@@@QAE@PAVDjVuAnno@@@Z   @1582
   ??0DjVuImage@@IAE@XZ   @1583
   ??0DjVuImageNotifier@@QAE@PAVDjVuInterface@@@Z   @1584
   ??1?$GP@VDjVuImageNotifier@@@@QAE@XZ   @1585
   ??1?$GP@VGBitmapScaler@@@@QAE@XZ   @1586
   ??1?$GP@VGPixmapScaler@@@@QAE@XZ   @1587
   ??1?$GPList@VDjVuFile@@@@QAE@XZ   @1588
   ??1DjVuImage@@UAE@XZ   @1589
   ??1DjVuImageNotifier@@UAE@XZ   @1590
   ??1DjVuInterface@@UAE@XZ   @1591
   ??A?$GListTemplate@V?$GP@VDjVuFile@@@@VGPBase@@@@QAEAAV?$GP@VDjVuFile@@@@VGPosition@@@Z   @1592
   ??A?$GListTemplate@V?$GP@VGMapArea@@@@VGPBase@@@@QAEAAV?$GP@VGMapArea@@@@VGPosition@@@Z   @1593
   ??B?$GP@VDjVuImageNotifier@@@@QBEPAVDjVuImageNotifier@@XZ   @1594
   ??C?$GP@VDjVuImageNotifier@@@@QBEPAVDjVuImageNotifier@@XZ   @1595
   ??C?$GP@VGMapArea@@@@QBEPAVGMapArea@@XZ   @1596
   ?connect@DjVuImage@@QAEXABV?$GP@VDjVuFile@@@@@Z   @1597
   ?create@GBitmapScaler@@SA?AV?$GP@VGBitmapScaler@@@@XZ   @1598
   ?create@GPixmap@@SA?AV?$GP@VGPixmap@@@@XZ   @1599
   ?create@GPixmapScaler@@SA?AV?$GP@VGPixmapScaler@@@@HHHH@Z   @1600
   ?create@GPixmapScaler@@SA?AV?$GP@VGPixmapScaler@@@@XZ   @1601
   ?decode@DjVuImage@@QAEXAAVByteStream@@PAVDjVuInterface@@@Z   @1602
   ?get_XML@DjVuImage@@QBE?AVGUTF8String@@ABVGURL@@H@Z   @1603
   ?get_XML@DjVuImage@@QBE?AVGUTF8String@@XZ   @1604
   ?get_anno@DjVuImage@@QBE?AV?$GP@VByteStream@@@@XZ   @1605
   ?get_bg44@DjVuImage@@ABE?AV?$GP@VIW44Image@@@@ABV?$GP@VDjVuFile@@@@@Z   @1606
   ?get_bg44@DjVuImage@@QBE?AV?$GP@VIW44Image@@@@XZ   @1607
   ?get_bg_pixmap@DjVuImage@@QBE?AV?$GP@VGPixmap@@@@ABVGRect@@0N@Z   @1608
   ?get_bg_pixmap@DjVuImage@@QBE?AV?$GP@VGPixmap@@@@ABVGRect@@HN@Z   @1609
   ?get_bgpm@DjVuImage@@ABE?AV?$GP@VGPixmap@@@@ABV?$GP@VDjVuFile@@@@@Z   @1610
   ?get_bgpm@DjVuImage@@QBE?AV?$GP@VGPixmap@@@@XZ   @1611
   ?get_bitmap@DjVuImage@@QBE?AV?$GP@VGBitmap@@@@ABVGRect@@0H@Z   @1612
   ?get_bitmap@DjVuImage@@QBE?AV?$GP@VGBitmap@@@@ABVGRect@@HH@Z   @1613
   ?get_decoded_anno@DjVuImage@@QAE?AV?$GP@VDjVuAnno@@@@XZ   @1614
   ?get_dpi@DjVuImage@@QBEHXZ   @1615
   ?get_fg_pixmap@DjVuImage@@QBE?AV?$GP@VGPixmap@@@@ABVGRect@@0N@Z   @1616
   ?get_fg_pixmap@DjVuImage@@QBE?AV?$GP@VGPixmap@@@@ABVGRect@@HN@Z   @1617
   ?get_fgbc@DjVuImage@@ABE?AV?$GP@VDjVuPalette@@@@ABV?$GP@VDjVuFile@@@@@Z   @1618
   ?get_fgbc@DjVuImage@@QBE?AV?$GP@VDjVuPalette@@@@XZ   @1619
   ?get_fgjb@DjVuImage@@ABE?AV?$GP@VJB2Image@@@@ABV?$GP@VDjVuFile@@@@@Z   @1620
   ?get_fgjb@DjVuImage@@QBE?AV?$GP@VJB2Image@@@@XZ   @1621
   ?get_fgpm@DjVuImage@@ABE?AV?$GP@VGPixmap@@@@ABV?$GP@VDjVuFile@@@@@Z   @1622
   ?get_fgpm@DjVuImage@@QBE?AV?$GP@VGPixmap@@@@XZ   @1623
   ?get_gamma@DjVuImage@@QBENXZ   @1624
   ?get_height@DjVuImage@@QBEHXZ   @1625
   ?get_info@DjVuImage@@ABE?AV?$GP@VDjVuInfo@@@@ABV?$GP@VDjVuFile@@@@@Z   @1626
   ?get_info@DjVuImage@@QBE?AV?$GP@VDjVuInfo@@@@XZ   @1627
   ?get_long_description@DjVuImage@@QBE?AVGUTF8String@@XZ   @1628
   ?get_meta@DjVuImage@@QBE?AV?$GP@VByteStream@@@@XZ   @1629
   ?get_mimetype@DjVuImage@@QBE?AVGUTF8String@@XZ   @1630
   ?get_pixmap@DjVuImage@@QBE?AV?$GP@VGPixmap@@@@ABVGRect@@0N@Z   @1631
   ?get_pixmap@DjVuImage@@QBE?AV?$GP@VGPixmap@@@@ABVGRect@@HN@Z   @1632
   ?get_real_height@DjVuImage@@QBEHXZ   @1633
   ?get_real_width@DjVuImage@@QBEHXZ   @1634
   ?get_rotate@DjVuImage@@QBEHXZ   @1635
   ?get_rounded_dpi@DjVuImage@@QBEHXZ   @1636
   ?get_short_description@DjVuImage@@QBE?AVGUTF8String@@XZ   @1637
   ?get_text@DjVuImage@@QBE?AV?$GP@VByteStream@@@@XZ   @1638
   ?get_version@DjVuImage@@QBEHXZ   @1639
   ?get_width@DjVuImage@@QBEHXZ   @1640
   ?index_to_color@DjVuPalette@@QBEXHPAE@Z   @1641
   ?init_rotate@DjVuImage@@AAEXABVDjVuInfo@@@Z   @1642
   ?insert_before@?$GListTemplate@HH@@QAEXVGPosition@@AAV1@AAV2@@Z   @1643
   ?is_legal_bilevel@DjVuImage@@QBEHXZ   @1644
   ?is_legal_compound@DjVuImage@@QBEHXZ   @1645
   ?is_legal_photo@DjVuImage@@QBEHXZ   @1646
   ?map@DjVuImage@@QBEXAAH0@Z   @1647
   ?map@DjVuImage@@QBEXAAVGRect@@@Z   @1648
   ?notify_chunk_done@DjVuImage@@UAEXPBVDjVuPort@@ABVGUTF8String@@@Z   @1649
   ?notify_chunk_done@DjVuImageNotifier@@UAEXPBVDjVuPort@@ABVGUTF8String@@@Z   @1650
   ?notify_redisplay@DjVuImageNotifier@@UAEXPBVDjVuImage@@@Z   @1651
   ?notify_relayout@DjVuImageNotifier@@UAEXPBVDjVuImage@@@Z   @1652
   ?request_data@DjVuImageNotifier@@UAE?AV?$GP@VDataPool@@@@PBVDjVuPort@@ABVGURL@@@Z   @1653
   ?set_rotate@DjVuImage@@QAEXH@Z   @1654
   ?stencil@DjVuImage@@ABEHPAVGPixmap@@ABVGRect@@HN@Z   @1655
   ?unmap@DjVuImage@@QBEXAAH0@Z   @1656
   ?unmap@DjVuImage@@QBEXAAVGRect@@@Z   @1657
   ?wait_for_complete_decode@DjVuImage@@QAE_NXZ   @1658
   ?writeXML@DjVuImage@@QBEXAAVByteStream@@@Z   @1659
   ?writeXML@DjVuImage@@QBEXAAVByteStream@@ABVGURL@@H@Z   @1660
   ??0?$GArrayTemplate@PAX@@QAE@ABUTraits@@HH@Z   @1661
   ??1?$GP@VItem@DjVuFileCache@@@@QAE@XZ   @1662
   ??1?$GPList@VItem@DjVuFileCache@@@@QAE@XZ   @1663
   ??1?$GTArray@PAX@@QAE@XZ   @1664
   ??1DjVuFileCache@@UAE@XZ   @1665
   ??1Item@DjVuFileCache@@UAE@XZ   @1666
   ??A?$GListTemplate@V?$GP@VItem@DjVuFileCache@@@@VGPBase@@@@QAEAAV?$GP@VItem@DjVuFileCache@@@@VGPosition@@@Z   @1667
   ??C?$GP@VItem@DjVuFileCache@@@@QBEPAVItem@DjVuFileCache@@XZ   @1668
   ?add_file@DjVuFileCache@@QAEXABV?$GP@VDjVuFile@@@@@Z   @1669
   ?calculate_size@DjVuFileCache@@AAEHXZ   @1670
   ?clear_to_size@DjVuFileCache@@AAEXH@Z   @1671
   ?del_file@DjVuFileCache@@QAEXPBVDjVuFile@@@Z   @1672
   ?enable@DjVuFileCache@@QAEX_N@Z   @1673
   ?file_added@DjVuFileCache@@MAEXABV?$GP@VDjVuFile@@@@@Z   @1674
   ?file_cleared@DjVuFileCache@@MAEXABV?$GP@VDjVuFile@@@@@Z   @1675
   ?file_deleted@DjVuFileCache@@MAEXABV?$GP@VDjVuFile@@@@@Z   @1676
   ?get_file@Item@DjVuFileCache@@QBE?AV?$GP@VDjVuFile@@@@XZ   @1677
   ?get_items@DjVuFileCache@@IAE?AV?$GPList@VItem@DjVuFileCache@@@@XZ   @1678
   ?get_size@Item@DjVuFileCache@@QBEIXZ   @1679
   ?get_time@Item@DjVuFileCache@@QBEJXZ   @1680
   ?qsort_func@Item@DjVuFileCache@@SAHPBX0@Z   @1681
   ?set_max_size@DjVuFileCache@@QAEXH@Z   @1682
   ??0?$GSetImpl@VGURL@@@@IAE@ABUTraits@@@Z   @1683
   ??0DjVuFile@@IAE@XZ   @1684
   ??1?$GMap@VGURL@@PAX@@QAE@XZ   @1685
   ??1?$GP@VDjVuNavDir@@@@QAE@XZ   @1686
   ??1?$MapNode@VGURL@@PAX@@QAE@XZ   @1687
   ??1DjVuFile@@UAE@XZ   @1688
   ??1DjVuSimplePort@@UAE@XZ   @1689
   ??1GSafeFlags@@QAE@XZ   @1690
   ??1ProgressByteStream@@UAE@XZ   @1691
   ??C?$GP@VDjVuFile@@@@QBEPAVDjVuFile@@XZ   @1692
   ??C?$GP@VDjVuPalette@@@@QBEPAVDjVuPalette@@XZ   @1693
   ??C?$GP@VIW44Image@@@@QBEPAVIW44Image@@XZ   @1694
   ?add_djvu_data@DjVuFile@@AAEXAAVIFFByteStream@@AAV?$GMap@VGURL@@PAX@@_N2@Z   @1695
   ?change_info@DjVuFile@@QAEXV?$GP@VDjVuInfo@@@@_N@Z   @1696
   ?change_meta@DjVuFile@@QAEXABVGUTF8String@@_N@Z   @1697
   ?change_text@DjVuFile@@QAEXV?$GP@VDjVuTXT@@@@_N@Z   @1698
   ?check@DjVuFile@@ABEXXZ   @1699
   ?contains@?$GSetImpl@VGURL@@@@QBE?AVGPosition@@ABVGURL@@@Z   @1700
   ?contains_anno@DjVuFile@@QAE_NXZ   @1701
   ?contains_chunk@DjVuFile@@QAE_NABVGUTF8String@@@Z   @1702
   ?contains_meta@DjVuFile@@QAE_NXZ   @1703
   ?contains_text@DjVuFile@@QAE_NXZ   @1704
   ?copy@?$NormTraits@U?$MapNode@VGURL@@PAX@@@@SAXPAXPBXHH@Z   @1705
   ?create@DjVuFile@@SA?AV?$GP@VDjVuFile@@@@ABV?$GP@VByteStream@@@@W4ErrorRecoveryAction@DjVuPort@@_N@Z   @1706
   ?create@DjVuFile@@SA?AV?$GP@VDjVuFile@@@@ABVGURL@@V?$GP@VDjVuPort@@@@W4ErrorRecoveryAction@DjVuPort@@_N@Z   @1707
   ?create@DjVuNavDir@@SA?AV?$GP@VDjVuNavDir@@@@ABVGURL@@@Z   @1708
   ?create@DjVuPalette@@SA?AV?$GP@VDjVuPalette@@@@XZ   @1709
   ?decode@DjVuFile@@AAEXABV?$GP@VByteStream@@@@@Z   @1710
   ?decode_chunk@DjVuFile@@AAE?AVGUTF8String@@ABV2@ABV?$GP@VByteStream@@@@_N22@Z   @1711
   ?decode_func@DjVuFile@@AAEXXZ   @1712
   ?decode_ndir@DjVuFile@@AAE?AV?$GP@VDjVuNavDir@@@@AAV?$GMap@VGURL@@PAX@@@Z   @1713
   ?decode_ndir@DjVuFile@@QAE?AV?$GP@VDjVuNavDir@@@@XZ   @1714
   ?find_ndir@DjVuFile@@AAE?AV?$GP@VDjVuNavDir@@@@AAV?$GMap@VGURL@@PAX@@@Z   @1715
   ?find_ndir@DjVuFile@@QAE?AV?$GP@VDjVuNavDir@@@@XZ   @1716
   ?fini@?$NormTraits@U?$MapNode@VGURL@@PAX@@@@SAXPAXH@Z   @1717
   ?get_anno@DjVuFile@@CAXABV?$GP@VDjVuFile@@@@ABV?$GP@VByteStream@@@@@Z   @1718
   ?get_anno@DjVuFile@@QAE?AV?$GP@VByteStream@@@@XZ   @1719
   ?get_chunk_name@DjVuFile@@QAE?AVGUTF8String@@H@Z   @1720
   ?get_chunks_number@DjVuFile@@QAEHXZ   @1721
   ?get_djvu_bytestream@DjVuFile@@QAE?AV?$GP@VByteStream@@@@_N0@Z   @1722
   ?get_djvu_data@DjVuFile@@QAE?AV?$GP@VDataPool@@@@_N0@Z   @1723
   ?get_dpi@DjVuFile@@AAEHHH@Z   @1724
   ?get_fgjd@DjVuFile@@AAE?AV?$GP@VJB2Dict@@@@H@Z   @1725
   ?get_included_files@DjVuFile@@QAE?AV?$GPList@VDjVuFile@@@@_N@Z   @1726
   ?get_memory_usage@DjVuFile@@QBEIXZ   @1727
   ?get_merged_anno@DjVuFile@@CAXABV?$GP@VDjVuFile@@@@ABV?$GP@VByteStream@@@@ABV?$GList@VGURL@@@@HAAHAAV?$GMap@VGURL@@PAX@@@Z   @1728
   ?get_merged_anno@DjVuFile@@QAE?AV?$GP@VByteStream@@@@ABV?$GList@VGURL@@@@PAH@Z   @1729
   ?get_merged_anno@DjVuFile@@QAE?AV?$GP@VByteStream@@@@PAH@Z   @1730
   ?get_meta@DjVuFile@@CAXABV?$GP@VDjVuFile@@@@ABV?$GP@VByteStream@@@@@Z   @1731
   ?get_meta@DjVuFile@@QAE?AV?$GP@VByteStream@@@@XZ   @1732
   ?get_meta@DjVuFile@@QAEXAAVByteStream@@@Z   @1733
   ?get_or_create@?$GMapImpl@VGURL@@PAX@@IAEPAUHNode@@ABVGURL@@@Z   @1734
   ?get_text@DjVuFile@@CAXABV?$GP@VDjVuFile@@@@ABV?$GP@VByteStream@@@@@Z   @1735
   ?get_text@DjVuFile@@QAE?AV?$GP@VByteStream@@@@XZ   @1736
   ?get_text@DjVuFile@@QAEXAAVByteStream@@@Z   @1737
   ?inherits@DjVuFile@@UBE_NABVGUTF8String@@@Z   @1738
   ?inherits@DjVuSimplePort@@UBE_NABVGUTF8String@@@Z   @1739
   ?init@?$NormTraits@U?$MapNode@VGURL@@PAX@@@@SAXPAXH@Z   @1740
   ?init@DjVuFile@@QAEXABV?$GP@VByteStream@@@@@Z   @1741
   ?init@DjVuFile@@QAEXABVGURL@@V?$GP@VDjVuPort@@@@@Z   @1742
   ?insert_before@?$GListTemplate@V?$GP@VDjVuFile@@@@VGPBase@@@@QAEXVGPosition@@ABV?$GP@VDjVuFile@@@@@Z   @1743
   ?insert_file@DjVuFile@@QAEXABVGUTF8String@@H@Z   @1744
   ?lea@?$NormTraits@U?$MapNode@VGURL@@PAX@@@@SAPAXPAXH@Z   @1745
   ?merge_anno@DjVuFile@@QAEXAAVByteStream@@@Z   @1746
   ?move@DjVuFile@@AAEXAAV?$GMap@VGURL@@PAX@@ABVGURL@@@Z   @1747
   ?move@DjVuFile@@QAEXABVGURL@@@Z   @1748
   ?notify_chunk_done@DjVuFile@@UAEXPBVDjVuPort@@ABVGUTF8String@@@Z   @1749
   ?notify_file_flags_changed@DjVuFile@@UAEXPBV1@JJ@Z   @1750
   ?process_incl_chunk@DjVuFile@@AAE?AV?$GP@VDjVuFile@@@@AAVByteStream@@H@Z   @1751
   ?process_incl_chunks@DjVuFile@@QAEXXZ   @1752
   ?progress_cb@DjVuFile@@CAXHPAX@Z   @1753
   ?read@ProgressByteStream@@UAEIPAXI@Z   @1754
   ?rebuild_data_pool@DjVuFile@@QAEXXZ   @1755
   ?remove_anno@DjVuFile@@QAEXXZ   @1756
   ?remove_meta@DjVuFile@@QAEXXZ   @1757
   ?remove_text@DjVuFile@@QAEXXZ   @1758
   ?report_error@DjVuFile@@UAEXABVGException@@_N@Z   @1759
   ?reset@DjVuFile@@QAEXXZ   @1760
   ?resume_decode@DjVuFile@@QAE_N_N@Z   @1761
   ?search@?$GListImpl@VGURL@@@@IBEHABVGURL@@AAVGPosition@@@Z   @1762
   ?seek@ProgressByteStream@@UAEHJH_N@Z   @1763
   ?set_decode_codec@DjVuFile@@SAXP6A?AV?$GP@VGPixmap@@@@AAVByteStream@@@Z@Z   @1764
   ?set_name@DjVuFile@@QAEXABVGUTF8String@@@Z   @1765
   ?set_recover_errors@DjVuFile@@UAEXW4ErrorRecoveryAction@DjVuPort@@@Z   @1766
   ?set_verbose_eof@DjVuFile@@UAEX_N@Z   @1767
   ?start_decode@DjVuFile@@QAEXXZ   @1768
   ?static_decode_func@DjVuFile@@CAXPAX@Z   @1769
   ?static_get_fgjd@DjVuFile@@CA?AV?$GP@VJB2Dict@@@@PAX@Z   @1770
   ?static_trigger_cb@DjVuFile@@CAXPAX@Z   @1771
   ?stop@DjVuFile@@QAEX_N@Z   @1772
   ?stop_decode@DjVuFile@@QAEX_N@Z   @1773
   ?tell@ProgressByteStream@@UBEJXZ   @1774
   ?theTraits@?1??traits@?$NormTraits@U?$MapNode@VGURL@@PAX@@@@SAABUTraits@@XZ@4U3@B   @1775
   ?trigger_cb@DjVuFile@@AAEXXZ   @1776
   ?unlink_file@DjVuFile@@QAEXABVGUTF8String@@@Z   @1777
   ?unlink_file@DjVuFile@@SA?AV?$GP@VDataPool@@@@ABV2@ABVGUTF8String@@@Z   @1778
   ?wait_for_chunk@DjVuFile@@AAEXXZ   @1779
   ?wait_for_finish@DjVuFile@@AAE_N_N@Z   @1780
   ?write@ProgressByteStream@@UAEIPBXI@Z   @1781
   ??0DjVuErrorList@@IAE@XZ   @1782
   ??1?$GP@VDjVmDoc@@@@QAE@XZ   @1783
   ??1DjVuErrorList@@UAE@XZ   @1784
   ?GetError@DjVuErrorList@@QAE?AVGUTF8String@@XZ   @1785
   ?GetStatus@DjVuErrorList@@QAE?AVGUTF8String@@XZ   @1786
   ?notify_error@DjVuErrorList@@UAE_NPBVDjVuPort@@ABVGUTF8String@@@Z   @1787
   ?notify_status@DjVuErrorList@@UAE_NPBVDjVuPort@@ABVGUTF8String@@@Z   @1788
   ?request_data@DjVuErrorList@@UAE?AV?$GP@VDataPool@@@@PBVDjVuPort@@ABVGURL@@@Z   @1789
   ?set_stream@DjVuErrorList@@QAE?AVGURL@@V?$GP@VByteStream@@@@@Z   @1790
   ??0?$GMapImpl@HVGPBase@@@@QAE@ABV0@@Z   @1791
   ??0?$GMapTemplate@HV?$GP@VFile@DjVmDir@@@@VGPBase@@@@QAE@XZ   @1792
   ??0?$GMapTemplate@VGUTF8String@@HH@@QAE@XZ   @1793
   ??0?$GMapTemplate@VGUTF8String@@V?$GP@VFile@DjVmDir@@@@VGPBase@@@@QAE@XZ   @1794
   ??0?$GPMap@HVFile@DjVmDir@@@@QAE@ABV0@@Z   @1795
   ??1?$GP@VDjVmDir@@@@QAE@XZ   @1796
   ??1?$GP@VFile@DjVmDir@@@@QAE@XZ   @1797
   ??1?$GPArray@VFile@DjVmDir@@@@QAE@XZ   @1798
   ??1?$GPList@VFile@DjVmDir@@@@QAE@XZ   @1799
   ??1?$GPMap@HVFile@DjVmDir@@@@QAE@XZ   @1800
   ??1?$GPMap@VGUTF8String@@VFile@DjVmDir@@@@QAE@XZ   @1801
   ??1?$MapNode@HVGPBase@@@@QAE@XZ   @1802
   ??1?$MapNode@VGUTF8String@@VGPBase@@@@QAE@XZ   @1803
   ??1DjVmDir@@UAE@XZ   @1804
   ??1DjVmInfo@@QAE@XZ   @1805
   ??A?$GListTemplate@V?$GP@VFile@DjVmDir@@@@VGPBase@@@@QAEAAV?$GP@VFile@DjVmDir@@@@VGPosition@@@Z   @1806
   ??A?$GListTemplate@V?$GP@VFile@DjVmDir@@@@VGPBase@@@@QBEABV?$GP@VFile@DjVmDir@@@@VGPosition@@@Z   @1807
   ??A?$GMapTemplate@HV?$GP@VFile@DjVmDir@@@@VGPBase@@@@QAEAAV?$GP@VFile@DjVmDir@@@@ABH@Z   @1808
   ??B?$GListTemplate@V?$GP@VFile@DjVmDir@@@@VGPBase@@@@QBE?AVGPosition@@XZ   @1809
   ??C?$GP@VDataPool@@@@QBEPAVDataPool@@XZ   @1810
   ??C?$GP@VFile@DjVmDir@@@@QBEPAVFile@DjVmDir@@XZ   @1811
   ??D?$GP@VByteStream@@@@QBEAAVByteStream@@XZ   @1812
   ??D?$GP@VIFFByteStream@@@@QBEAAVIFFByteStream@@XZ   @1813
   ?copy@?$NormTraits@U?$MapNode@HVGPBase@@@@@@SAXPAXPBXHH@Z   @1814
   ?copy@?$NormTraits@U?$MapNode@VGUTF8String@@VGPBase@@@@@@SAXPAXPBXHH@Z   @1815
   ?create@DjVmDir@@SA?AV?$GP@VDjVmDir@@@@XZ   @1816
   ?dump@DjVuDumpHelper@@QAE?AV?$GP@VByteStream@@@@ABV?$GP@VDataPool@@@@@Z   @1817
   ?dump@DjVuDumpHelper@@QAE?AV?$GP@VByteStream@@@@V2@@Z   @1818
   ?fini@?$NormTraits@U?$MapNode@HVGPBase@@@@@@SAXPAXH@Z   @1819
   ?fini@?$NormTraits@U?$MapNode@VGUTF8String@@VGPBase@@@@@@SAXPAXH@Z   @1820
   ?get_load_name@File@DjVmDir@@QBEABVGUTF8String@@XZ   @1821
   ?get_or_create@?$GMapImpl@HVGPBase@@@@IAEPAUHNode@@ABH@Z   @1822
   ?init@?$NormTraits@U?$MapNode@HVGPBase@@@@@@SAXPAXH@Z   @1823
   ?init@?$NormTraits@U?$MapNode@VGUTF8String@@VGPBase@@@@@@SAXPAXH@Z   @1824
   ?lea@?$NormTraits@U?$MapNode@HVGPBase@@@@@@SAPAXPAXH@Z   @1825
   ?lea@?$NormTraits@U?$MapNode@VGUTF8String@@VGPBase@@@@@@SAPAXPAXH@Z   @1826
   ?theTraits@?1??traits@?$NormTraits@U?$MapNode@HVGPBase@@@@@@SAABUTraits@@XZ@4U3@B   @1827
   ?theTraits@?1??traits@?$NormTraits@U?$MapNode@VGUTF8String@@VGPBase@@@@@@SAABUTraits@@XZ@4U3@B   @1828
   ??0?$GListImpl@VGURL@@@@QAE@ABV0@@Z   @1829
   ??0?$GListImpl@VGUTF8String@@@@QAE@ABV0@@Z   @1830
   ??0?$GMap@VGURL@@PAX@@QAE@XZ   @1831
   ??0?$GMapImpl@VGURL@@PAX@@IAE@XZ   @1832
   ??0?$GMapTemplate@VGURL@@PAXPAX@@QAE@XZ   @1833
   ??0?$GP@VDataPool@@@@QAE@ABV0@@Z   @1834
   ??0?$GP@VDjVuFile@@@@QAE@ABV0@@Z   @1835
   ??0?$GP@VDjVuFile@@@@QAE@XZ   @1836
   ??0?$GP@VDjVuPort@@@@QAE@ABV0@@Z   @1837
   ??0?$GP@VGBitmap@@@@QAE@PAVGBitmap@@@Z   @1838
   ??0DjVuDocument@@IAE@XZ   @1839
   ??1?$GMap@VGUTF8String@@V?$GP@VFileRec@DjVmDir0@@@@@@QAE@XZ   @1840
   ??1?$GP@VDjVmDir0@@@@QAE@XZ   @1841
   ??1?$GP@VDjVmNav@@@@QAE@XZ   @1842
   ??1?$GP@VDjVuSimplePort@@@@QAE@XZ   @1843
   ??1?$GP@VFileRec@DjVmDir0@@@@QAE@XZ   @1844
   ??1?$GP@VThumbReq@DjVuDocument@@@@QAE@XZ   @1845
   ??1?$GP@VUnnamedFile@DjVuDocument@@@@QAE@XZ   @1846
   ??1?$GPList@VThumbReq@DjVuDocument@@@@QAE@XZ   @1847
   ??1?$GPList@VUnnamedFile@DjVuDocument@@@@QAE@XZ   @1848
   ??1?$MapNode@VGUTF8String@@V?$GP@VFileRec@DjVmDir0@@@@@@QAE@XZ   @1849
   ??1DjVmDir0@@UAE@XZ   @1850
   ??1DjVuDocument@@UAE@XZ   @1851
   ??1File@DjVmDir@@UAE@XZ   @1852
   ??1GThread@@QAE@XZ   @1853
   ??1ThumbReq@DjVuDocument@@UAE@XZ   @1854
   ??1UnnamedFile@DjVuDocument@@UAE@XZ   @1855
   ??A?$GListTemplate@V?$GP@VThumbReq@DjVuDocument@@@@VGPBase@@@@QAEAAV?$GP@VThumbReq@DjVuDocument@@@@VGPosition@@@Z   @1856
   ??A?$GListTemplate@V?$GP@VUnnamedFile@DjVuDocument@@@@VGPBase@@@@QAEAAV?$GP@VUnnamedFile@DjVuDocument@@@@VGPosition@@@Z   @1857
   ??A?$GListTemplate@V?$GP@VUnnamedFile@DjVuDocument@@@@VGPBase@@@@QBEABV?$GP@VUnnamedFile@DjVuDocument@@@@VGPosition@@@Z   @1858
   ??B?$GP@VDjVuFile@@@@QBEPAVDjVuFile@@XZ   @1859
   ??C?$GP@VDjVmDoc@@@@QBEPAVDjVmDoc@@XZ   @1860
   ??C?$GP@VUnnamedFile@DjVuDocument@@@@QBEPAVUnnamedFile@DjVuDocument@@XZ   @1861
   ??D?$GP@VGPixmap@@@@QBEAAVGPixmap@@XZ   @1862
   ?add_thumb_req@DjVuDocument@@IAE?AV?$GP@VThumbReq@DjVuDocument@@@@ABV2@@Z   @1863
   ?add_to_cache@DjVuDocument@@IAEXABV?$GP@VDjVuFile@@@@@Z   @1864
   ?check@DjVuDocument@@IBEXXZ   @1865
   ?check_unnamed_files@DjVuDocument@@IAEXXZ   @1866
   ?copy@?$NormTraits@U?$MapNode@VGUTF8String@@V?$GP@VFileRec@DjVmDir0@@@@@@@@SAXPAXPBXHH@Z   @1867
   ?create@DjVmDir0@@SA?AV?$GP@VDjVmDir0@@@@XZ   @1868
   ?create@DjVuDocument@@SA?AV?$GP@VDjVuDocument@@@@ABV?$GP@VByteStream@@@@V?$GP@VDjVuPort@@@@QAVDjVuFileCache@@@Z   @1869
   ?create@DjVuDocument@@SA?AV?$GP@VDjVuDocument@@@@ABVGURL@@V?$GP@VDjVuPort@@@@QAVDjVuFileCache@@@Z   @1870
   ?create@DjVuDocument@@SA?AV?$GP@VDjVuDocument@@@@V?$GP@VDataPool@@@@V?$GP@VDjVuPort@@@@QAVDjVuFileCache@@@Z   @1871
   ?create@GPixmap@@SA?AV?$GP@VGPixmap@@@@ABVGBitmap@@@Z   @1872
   ?create_wait@DjVuDocument@@SA?AV?$GP@VDjVuDocument@@@@ABVGURL@@V?$GP@VDjVuPort@@@@QAVDjVuFileCache@@@Z   @1873
   ?djvu_compress_codec@DjVuDocument@@1P6AXAAV?$GP@VByteStream@@@@ABVGURL@@_N@ZA   @1874
   ?djvu_import_codec@DjVuDocument@@1P6AXAAV?$GP@VDataPool@@@@ABVGURL@@AA_N2@ZA   @1875
   ?expand@DjVuDocument@@QAEXABVGURL@@ABVGUTF8String@@@Z   @1876
   ?fini@?$NormTraits@U?$MapNode@VGUTF8String@@V?$GP@VFileRec@DjVmDir0@@@@@@@@SAXPAXH@Z   @1877
   ?get_djvm_dir@DjVmDoc@@QAE?AV?$GP@VDjVmDir@@@@XZ   @1878
   ?get_djvm_doc@DjVuDocument@@QAE?AV?$GP@VDjVmDoc@@@@XZ   @1879
   ?get_djvu_file@DjVuDocument@@QAE?AV?$GP@VDjVuFile@@@@ABVGURL@@_N@Z   @1880
   ?get_djvu_file@DjVuDocument@@QAE?AV?$GP@VDjVuFile@@@@ABVGUTF8String@@_N@Z   @1881
   ?get_djvu_file@DjVuDocument@@QBE?AV?$GP@VDjVuFile@@@@H_N@Z   @1882
   ?get_id_list@DjVuDocument@@QAE?AV?$GList@VGUTF8String@@@@XZ   @1883
   ?get_int_prefix@DjVuDocument@@IBE?AVGUTF8String@@XZ   @1884
   ?get_page@DjVuDocument@@QAE?AV?$GP@VDjVuImage@@@@ABVGUTF8String@@_NPAVDjVuPort@@@Z   @1885
   ?get_page@DjVuDocument@@QBE?AV?$GP@VDjVuImage@@@@H_NPAVDjVuPort@@@Z   @1886
   ?get_pages_num@DjVuDocument@@QBEHXZ   @1887
   ?get_thumbnail@DjVuDocument@@UAE?AV?$GP@VDataPool@@@@H_N@Z   @1888
   ?get_url_names@DjVuDocument@@UAE?AV?$GList@VGURL@@@@XZ   @1889
   ?id_to_file@DjVuDocument@@UAE?AV?$GP@VDjVuFile@@@@PBVDjVuPort@@ABVGUTF8String@@@Z   @1890
   ?id_to_url@DjVuDocument@@QBE?AVGURL@@ABVGUTF8String@@@Z   @1891
   ?id_to_url@DjVuDocument@@UAE?AVGURL@@PBVDjVuPort@@ABVGUTF8String@@@Z   @1892
   ?inherits@DjVuDocument@@UBE_NABVGUTF8String@@@Z   @1893
   ?init@?$NormTraits@U?$MapNode@VGUTF8String@@V?$GP@VFileRec@DjVmDir0@@@@@@@@SAXPAXH@Z   @1894
   ?init_thread@DjVuDocument@@IAEXXZ   @1895
   ?invent_url@DjVuDocument@@IBE?AVGURL@@ABVGUTF8String@@@Z   @1896
   ?is_indirect@DjVmDir@@QBE_NXZ   @1897
   ?lea@?$NormTraits@U?$MapNode@VGUTF8String@@V?$GP@VFileRec@DjVmDir0@@@@@@@@SAPAXPAXH@Z   @1898
   ?map_ids@DjVuDocument@@QAEXAAV?$GMap@VGUTF8String@@PAX@@@Z   @1899
   ?notify_file_flags_changed@DjVuDocument@@UAEXPBVDjVuFile@@JJ@Z   @1900
   ?page_to_url@DjVuDocument@@QBE?AVGURL@@H@Z   @1901
   ?process_threqs@DjVuDocument@@IAEXXZ   @1902
   ?request_data@DjVuDocument@@UAE?AV?$GP@VDataPool@@@@PBVDjVuPort@@ABVGURL@@@Z   @1903
   ?save_as@DjVuDocument@@UAEXABVGURL@@_N@Z   @1904
   ?set_compress_codec@DjVuDocument@@SAXP6AXAAV?$GP@VByteStream@@@@ABVGURL@@_N@Z@Z   @1905
   ?set_file_aliases@DjVuDocument@@IAEXPBVDjVuFile@@@Z   @1906
   ?set_import_codec@DjVuDocument@@SAXP6AXAAV?$GP@VDataPool@@@@ABVGURL@@AA_N2@Z@Z   @1907
   ?set_recover_errors@DjVuDocument@@UAEXW4ErrorRecoveryAction@DjVuPort@@@Z   @1908
   ?set_verbose_eof@DjVuDocument@@UAEX_N@Z   @1909
   ?start_init@DjVuDocument@@QAEXABVGURL@@V?$GP@VDjVuPort@@@@PAVDjVuFileCache@@@Z   @1910
   ?static_init_thread@DjVuDocument@@KAXPAX@Z   @1911
   ?stop_init@DjVuDocument@@QAEXXZ   @1912
   ?theTraits@?1??traits@?$NormTraits@U?$MapNode@VGUTF8String@@V?$GP@VFileRec@DjVmDir0@@@@@@@@SAABUTraits@@XZ@4U3@B   @1913
   ?thumb_gamma@DjVuDocument@@1MB   @1914
   ?url_to_file@DjVuDocument@@MBE?AV?$GP@VDjVuFile@@@@ABVGURL@@_N@Z   @1915
   ?url_to_page@DjVuDocument@@QBEHABVGURL@@@Z   @1916
   ?wait_for_complete_init@DjVuDocument@@QAE_NXZ   @1917
   ?wait_get_pages_num@DjVuDocument@@QBEHXZ   @1918
   ?write@DjVuDocument@@UAEXABV?$GP@VByteStream@@@@ABV?$GMap@VGUTF8String@@PAX@@@Z   @1919
   ?write@DjVuDocument@@UAEXABV?$GP@VByteStream@@@@_N@Z   @1920
   ?writeDjVuXML@DjVuDocument@@QBEXABV?$GP@VByteStream@@@@H@Z   @1921
   ??0?$GListTemplate@VGUTF8String@@V1@@@QAE@XZ   @1922
   ??0?$GMapTemplate@VGUTF8String@@V1@V1@@@QAE@XZ   @1923
   ??0DjVuDocEditor@@IAE@XZ   @1924
   ??1?$GArray@H@@QAE@XZ   @1925
   ??1?$GP@VDjVuDocEditor@@@@QAE@XZ   @1926
   ??1?$GP@VFile@DjVuDocEditor@@@@QAE@XZ   @1927
   ??1?$GPMap@VGUTF8String@@VDataPool@@@@QAE@XZ   @1928
   ??1?$GPMap@VGUTF8String@@VFile@DjVuDocEditor@@@@QAE@XZ   @1929
   ??1DjVuDocEditor@@UAE@XZ   @1930
   ??1File@DjVuDocEditor@@UAE@XZ   @1931
   ??A?$GListTemplate@HH@@QBEABHVGPosition@@@Z   @1932
   ??A?$GListTemplate@VGURL@@V1@@@QBEABVGURL@@VGPosition@@@Z   @1933
   ??C?$GP@VDjVuDocument@@@@QBEPAVDjVuDocument@@XZ   @1934
   ?can_be_saved@DjVuDocEditor@@QBE_NXZ   @1935
   ?check@DjVuDocEditor@@AAEXXZ   @1936
   ?clean_files_map@DjVuDocEditor@@AAEXXZ   @1937
   ?contains@?$GMapTemplate@VGUTF8String@@V?$GP@VDataPool@@@@VGPBase@@@@QBE?AVGPosition@@ABVGUTF8String@@@Z   @1938
   ?copy@?$NormTraits@H@@SAXPAXPBXHH@Z   @1939
   ?create_noinit@DjVuDocument@@SA?AV?$GP@VDjVuDocument@@@@XZ   @1940
   ?create_shared_anno_file@DjVuDocEditor@@QAEXP6AXMPAX@Z0@Z   @1941
   ?create_wait@DjVuDocEditor@@SA?AV?$GP@VDjVuDocEditor@@@@ABVGURL@@@Z   @1942
   ?create_wait@DjVuDocEditor@@SA?AV?$GP@VDjVuDocEditor@@@@XZ   @1943
   ?file_thumbnails@DjVuDocEditor@@AAEXXZ   @1944
   ?find_unique_id@DjVuDocEditor@@AAE?AVGUTF8String@@V2@@Z   @1945
   ?fini@?$NormTraits@H@@SAXPAXH@Z   @1946
   ?generate_ref_map@DjVuDocEditor@@AAEXABV?$GP@VDjVuFile@@@@AAV?$GMap@VGUTF8String@@PAX@@AAV?$GMap@VGURL@@PAX@@@Z   @1947
   ?generate_thumbnails@DjVuDocEditor@@QAEHHH@Z   @1948
   ?generate_thumbnails@DjVuDocEditor@@QAEXHP6A_NHPAX@Z0@Z   @1949
   ?get_djvm_dir@DjVuDocument@@QBE?AV?$GP@VDjVmDir@@@@XZ   @1950
   ?get_doc_url@DjVuDocEditor@@QBE?AVGURL@@XZ   @1951
   ?get_or_create@?$GMapImpl@VGUTF8String@@VGPBase@@@@IAEPAUHNode@@ABVGUTF8String@@@Z   @1952
   ?get_or_throw@?$GSetImpl@VGUTF8String@@@@IBEPAUHNode@@ABVGUTF8String@@@Z   @1953
   ?get_orig_doc_type@DjVuDocEditor@@QBEHXZ   @1954
   ?get_save_doc_type@DjVuDocEditor@@QBEHXZ   @1955
   ?get_shared_anno_file@DjVuDocEditor@@QAE?AV?$GP@VDjVuFile@@@@XZ   @1956
   ?get_thumbnail@DjVuDocEditor@@MAE?AV?$GP@VDataPool@@@@H_N@Z   @1957
   ?get_thumbnails_num@DjVuDocEditor@@QBEHXZ   @1958
   ?get_thumbnails_size@DjVuDocEditor@@QBEHXZ   @1959
   ?inherits@DjVuDocEditor@@UBE_NABVGUTF8String@@@Z   @1960
   ?init@?$NormTraits@H@@SAXPAXH@Z   @1961
   ?init@DjVuDocEditor@@IAEXABVGURL@@@Z   @1962
   ?init@DjVuDocEditor@@IAEXXZ   @1963
   ?init@DjVuDocument@@QAEXABVGURL@@V?$GP@VDjVuPort@@@@PAVDjVuFileCache@@@Z   @1964
   ?insert_file@DjVuDocEditor@@AAE_NABV?$GP@VDataPool@@@@ABVGURL@@_NAAHAAV?$GMap@VGUTF8String@@V1@@@PAVDjVuPort@@@Z   @1965
   ?insert_file@DjVuDocEditor@@AAE_NABVGURL@@_NAAHAAV?$GMap@VGUTF8String@@V1@@@PAVDjVuPort@@@Z   @1966
   ?insert_file@DjVuDocEditor@@QAE?AVGUTF8String@@ABVGURL@@ABV2@HPAVDjVuPort@@@Z   @1967
   ?insert_group@DjVuDocEditor@@QAEXABV?$GList@VGURL@@@@HP6AXPAX@Z1@Z   @1968
   ?insert_page@DjVuDocEditor@@QAEXAAV?$GP@VDataPool@@@@ABVGURL@@H@Z   @1969
   ?insert_page@DjVuDocEditor@@QAEXABVGURL@@H@Z   @1970
   ?is_valid@GURL@@QBE_NXZ   @1971
   ?lea@?$NormTraits@H@@SAPAXPAXH@Z   @1972
   ?move_file@DjVuDocEditor@@AAEXABVGUTF8String@@AAHAAV?$GMap@VGUTF8String@@PAX@@@Z   @1973
   ?move_page@DjVuDocEditor@@QAEXHH@Z   @1974
   ?move_pages@DjVuDocEditor@@QAEXABV?$GList@H@@H@Z   @1975
   ?page_to_id@DjVuDocEditor@@QBE?AVGUTF8String@@H@Z   @1976
   ?remove_file@DjVuDocEditor@@AAEXABVGUTF8String@@_NAAV?$GMap@VGUTF8String@@PAX@@@Z   @1977
   ?remove_file@DjVuDocEditor@@QAEXABVGUTF8String@@_N@Z   @1978
   ?remove_page@DjVuDocEditor@@QAEXH_N@Z   @1979
   ?remove_pages@DjVuDocEditor@@QAEXABV?$GList@H@@_N@Z   @1980
   ?remove_thumbnails@DjVuDocEditor@@QAEXXZ   @1981
   ?request_data@DjVuDocEditor@@UAE?AV?$GP@VDataPool@@@@PBVDjVuPort@@ABVGURL@@@Z   @1982
   ?save@DjVuDocEditor@@QAEXXZ   @1983
   ?save_as@DjVuDocEditor@@UAEXABVGURL@@_N@Z   @1984
   ?save_file@DjVuDocEditor@@AAEXABVGUTF8String@@ABVGURL@@AAV?$GMap@VGUTF8String@@V1@@@@Z   @1985
   ?save_file@DjVuDocEditor@@AAEXABVGUTF8String@@ABVGURL@@_NAAV?$GMap@VGUTF8String@@V1@@@@Z   @1986
   ?save_pages_as@DjVuDocEditor@@QAEXABV?$GP@VByteStream@@@@ABV?$GList@H@@@Z   @1987
   ?set_djvm_nav@DjVuDocEditor@@QAEXV?$GP@VDjVmNav@@@@@Z   @1988
   ?set_file_name@DjVuDocEditor@@QAEXABVGUTF8String@@0@Z   @1989
   ?set_file_title@DjVuDocEditor@@QAEXABVGUTF8String@@0@Z   @1990
   ?set_page_name@DjVuDocEditor@@QAEXHABVGUTF8String@@@Z   @1991
   ?set_page_title@DjVuDocEditor@@QAEXHABVGUTF8String@@@Z   @1992
   ?simplify_anno@DjVuDocEditor@@QAEXP6AXMPAX@Z0@Z   @1993
   ?strip_incl_chunks@DjVuDocEditor@@AAE?AV?$GP@VDataPool@@@@ABV2@@Z   @1994
   ?theTraits@?1??traits@?$NormTraits@H@@SAABUTraits@@XZ@4U3@B   @1995
   ?thumbnails_per_file@DjVuDocEditor@@2HA   @1996
   ?unfile_thumbnails@DjVuDocEditor@@AAEXXZ   @1997
   ?url_to_file@DjVuDocEditor@@MBE?AV?$GP@VDjVuFile@@@@ABVGURL@@_N@Z   @1998
   ?write@DjVuDocEditor@@UAEXABV?$GP@VByteStream@@@@ABV?$GMap@VGUTF8String@@PAX@@@Z   @1999
   ?write@DjVuDocEditor@@UAEXABV?$GP@VByteStream@@@@_N@Z   @2000
   ??0?$GListTemplate@V?$GP@VGLObject@@@@VGPBase@@@@QAE@ABV0@@Z   @2001
   ??0?$GListTemplate@V?$GP@VGLObject@@@@VGPBase@@@@QAE@XZ   @2002
   ??0?$GListTemplate@V?$GP@VGMapArea@@@@VGPBase@@@@QAE@XZ   @2003
   ??0?$GMap@VGUTF8String@@V1@@@QAE@ABV0@@Z   @2004
   ??0?$GPList@VGLObject@@@@QAE@ABV0@@Z   @2005
   ??0?$GPList@VGLObject@@@@QAE@XZ   @2006
   ??0?$GPList@VGMapArea@@@@QAE@ABV0@@Z   @2007
   ??0?$GSetImpl@VGUTF8String@@@@QAE@ABV0@@Z   @2008
   ??0DjVuANT@@IAE@XZ   @2009
   ??0GLObject@@QAE@H@Z   @2010
   ??0GLObject@@QAE@PBDABV?$GPList@VGLObject@@@@@Z   @2011
   ??0GLObject@@QAE@W4GLObjectType@0@PBD@Z   @2012
   ??0GLParser@@QAE@PBD@Z   @2013
   ??0GLParser@@QAE@XZ   @2014
   ??1?$GP@VGLObject@@@@QAE@XZ   @2015
   ??1?$GPList@VGLObject@@@@QAE@XZ   @2016
   ??1?$GPList@VGMapArea@@@@QAE@XZ   @2017
   ??1DjVuANT@@UAE@XZ   @2018
   ??1GLObject@@UAE@XZ   @2019
   ??1GLParser@@QAE@XZ   @2020
   ??1GLToken@@QAE@XZ   @2021
   ??A?$GListTemplate@V?$GP@VGLObject@@@@VGPBase@@@@QAEAAV?$GP@VGLObject@@@@VGPosition@@@Z   @2022
   ??A?$GListTemplate@V?$GP@VGLObject@@@@VGPBase@@@@QBEABV?$GP@VGLObject@@@@VGPosition@@@Z   @2023
   ??A?$GListTemplate@V?$GP@VGMapArea@@@@VGPBase@@@@QBEABV?$GP@VGMapArea@@@@VGPosition@@@Z   @2024
   ??AGLObject@@QBE?AV?$GP@VGLObject@@@@H@Z   @2025
   ??C?$GP@VGLObject@@@@QBEPAVGLObject@@XZ   @2026
   ?GLObjectString@GLObject@@2QBQBDB   @2027
   ?check_compat@GLParser@@AAEXPBD@Z   @2028
   ?copy@DjVuANT@@QBE?AV?$GP@VDjVuANT@@@@XZ   @2029
   ?copy@DjVuAnno@@QBE?AV?$GP@VDjVuAnno@@@@XZ   @2030
   ?create@GMapPoly@@SA?AV?$GP@VGMapPoly@@@@QBH0H_N@Z   @2031
   ?cvt_color@DjVuANT@@SAKPBDK@Z   @2032
   ?decode@DjVuANT@@AAEXAAVGLParser@@@Z   @2033
   ?decode@DjVuANT@@QAEXAAVByteStream@@@Z   @2034
   ?decode@DjVuAnno@@QAEXABV?$GP@VByteStream@@@@@Z   @2035
   ?decode_comp@DjVuANT@@CAEDD@Z   @2036
   ?del_all_items@DjVuANT@@CAXPBDAAVGLParser@@@Z   @2037
   ?encode@DjVuANT@@QAEXAAVByteStream@@@Z   @2038
   ?encode@DjVuAnno@@QAEXABV?$GP@VByteStream@@@@@Z   @2039
   ?encode_raw@DjVuANT@@QBE?AVGUTF8String@@XZ   @2040
   ?get_bg_color@DjVuANT@@CAKAAVGLParser@@@Z   @2041
   ?get_hor_align@DjVuANT@@CA?AW4alignment@1@AAVGLParser@@@Z   @2042
   ?get_list@GLObject@@QAEAAV?$GPList@VGLObject@@@@XZ   @2043
   ?get_list@GLParser@@QAEAAV?$GPList@VGLObject@@@@XZ   @2044
   ?get_map_areas@DjVuANT@@CA?AV?$GPList@VGMapArea@@@@AAVGLParser@@@Z   @2045
   ?get_memory_usage@DjVuANT@@QBEIXZ   @2046
   ?get_metadata@DjVuANT@@CA?AV?$GMap@VGUTF8String@@V1@@@AAVGLParser@@@Z   @2047
   ?get_mode@DjVuANT@@CAHAAVGLParser@@@Z   @2048
   ?get_name@GLObject@@QBE?AVGUTF8String@@XZ   @2049
   ?get_number@GLObject@@QBEHXZ   @2050
   ?get_object@GLParser@@QAE?AV?$GP@VGLObject@@@@PBD_N@Z   @2051
   ?get_paramtags@DjVuANT@@QBE?AVGUTF8String@@XZ   @2052
   ?get_paramtags@DjVuAnno@@QBE?AVGUTF8String@@XZ   @2053
   ?get_string@GLObject@@QBE?AVGUTF8String@@XZ   @2054
   ?get_symbol@GLObject@@QBE?AVGUTF8String@@XZ   @2055
   ?get_token@GLParser@@AAE?AVGLToken@@AAPBD@Z   @2056
   ?get_ver_align@DjVuANT@@CA?AW4alignment@1@AAVGLParser@@@Z   @2057
   ?get_xmlmap@DjVuANT@@QBE?AVGUTF8String@@ABV2@H@Z   @2058
   ?get_xmlmap@DjVuAnno@@QBE?AVGUTF8String@@ABV2@H@Z   @2059
   ?get_zoom@DjVuANT@@CAHAAVGLParser@@@Z   @2060
   ?is_empty@DjVuANT@@QBE_NXZ   @2061
   ?merge@DjVuANT@@QAEXAAVByteStream@@@Z   @2062
   ?merge@DjVuAnno@@QAEXABV?$GP@VDjVuAnno@@@@@Z   @2063
   ?parse@GLParser@@AAEXPBDAAV?$GPList@VGLObject@@@@AAPBD@Z   @2064
   ?parse@GLParser@@QAEXPBD@Z   @2065
   ?print@GLObject@@QBEXAAVByteStream@@HHPAH@Z   @2066
   ?print@GLParser@@QAEXAAVByteStream@@H@Z   @2067
   ?read_raw@DjVuANT@@CA?AVGUTF8String@@AAVByteStream@@@Z   @2068
   ?skip_white_space@GLParser@@AAEXAAPBD@Z   @2069
   ?throw_can_not_convert_to@GLObject@@ABEXW4GLObjectType@1@@Z   @2070
   ?writeMap@DjVuANT@@QBEXAAVByteStream@@ABVGUTF8String@@H@Z   @2071
   ?writeMap@DjVuAnno@@QBEXAAVByteStream@@ABVGUTF8String@@H@Z   @2072
   ?writeParam@DjVuANT@@QBEXAAVByteStream@@@Z   @2073
   ?writeParam@DjVuAnno@@QBEXAAVByteStream@@@Z   @2074
   ??0DjVuBookMark@DjVmNav@@IAE@XZ   @2075
   ??1?$GP@VDjVuBookMark@DjVmNav@@@@QAE@XZ   @2076
   ??1DjVmNav@@UAE@XZ   @2077
   ??1DjVuBookMark@DjVmNav@@UAE@XZ   @2078
   ??A?$GListTemplate@V?$GP@VDjVuBookMark@DjVmNav@@@@VGPBase@@@@QAEAAV?$GP@VDjVuBookMark@DjVmNav@@@@VGPosition@@@Z   @2079
   ??C?$GP@VDjVuBookMark@DjVmNav@@@@QBEPAVDjVuBookMark@DjVmNav@@XZ   @2080
   ?append@DjVmNav@@QAEXABV?$GP@VDjVuBookMark@DjVmNav@@@@@Z   @2081
   ?create@DjVmNav@@SA?AV?$GP@VDjVmNav@@@@XZ   @2082
   ?create@DjVuBookMark@DjVmNav@@SA?AV?$GP@VDjVuBookMark@DjVmNav@@@@GABVGUTF8String@@0@Z   @2083
   ?create@DjVuBookMark@DjVmNav@@SA?AV?$GP@VDjVuBookMark@DjVmNav@@@@XZ   @2084
   ?decode@DjVmNav@@QAEXABV?$GP@VByteStream@@@@@Z   @2085
   ?decode@DjVuBookMark@DjVmNav@@QAEXABV?$GP@VByteStream@@@@@Z   @2086
   ?dump@DjVmNav@@QAEXABV?$GP@VByteStream@@@@@Z   @2087
   ?dump@DjVuBookMark@DjVmNav@@QAEXABV?$GP@VByteStream@@@@@Z   @2088
   ?encode@DjVmNav@@QAEXABV?$GP@VByteStream@@@@@Z   @2089
   ?encode@DjVuBookMark@DjVmNav@@QAEXABV?$GP@VByteStream@@@@@Z   @2090
   ?getBookMark@DjVmNav@@QAE_NAAV?$GP@VDjVuBookMark@DjVmNav@@@@H@Z   @2091
   ?getBookMarkCount@DjVmNav@@QAEHXZ   @2092
   ?get_tree@DjVmNav@@QAEHHPAHH@Z   @2093
   ?isValidBookmark@DjVmNav@@QAE_NXZ   @2094
   ??0?$GMapTemplate@VGUTF8String@@PAXPAX@@QAE@XZ   @2095
   ??0?$GMapTemplate@VGUTF8String@@V?$GP@VDataPool@@@@VGPBase@@@@QAE@XZ   @2096
   ??0DjVmDoc@@IAE@XZ   @2097
   ??1DjVmDoc@@UAE@XZ   @2098
   ?create@DjVmDoc@@SA?AV?$GP@VDjVmDoc@@@@XZ   @2099
   ?delete_file@DjVmDoc@@QAEXABVGUTF8String@@@Z   @2100
   ?expand@DjVmDoc@@QAEXABVGURL@@ABVGUTF8String@@@Z   @2101
   ?get_data@DjVmDoc@@QBE?AV?$GP@VDataPool@@@@ABVGUTF8String@@@Z   @2102
   ?init@DjVmDoc@@IAEXXZ   @2103
   ?insert_file@DjVmDoc@@QAEXAAVByteStream@@W4FILE_TYPE@File@DjVmDir@@ABVGUTF8String@@22H@Z   @2104
   ?insert_file@DjVmDoc@@QAEXABV?$GP@VDataPool@@@@W4FILE_TYPE@File@DjVmDir@@ABVGUTF8String@@22H@Z   @2105
   ?insert_file@DjVmDoc@@QAEXABV?$GP@VFile@DjVmDir@@@@V?$GP@VDataPool@@@@H@Z   @2106
   ?read@DjVmDoc@@QAEXAAVByteStream@@@Z   @2107
   ?read@DjVmDoc@@QAEXABV?$GP@VDataPool@@@@@Z   @2108
   ?read@DjVmDoc@@QAEXABVGURL@@@Z   @2109
   ?save_file@DjVmDoc@@ABEXABVGURL@@ABVFile@DjVmDir@@PAV?$GMap@VGUTF8String@@V1@@@@Z   @2110
   ?save_file@DjVmDoc@@QBE?AVGUTF8String@@ABVGURL@@ABVFile@DjVmDir@@AAV?$GMap@VGUTF8String@@V1@@@ABV?$GP@VDataPool@@@@@Z   @2111
   ?save_file@DjVmDoc@@QBEXABVGURL@@ABVFile@DjVmDir@@@Z   @2112
   ?save_page@DjVmDoc@@QBEXABVGURL@@ABVFile@DjVmDir@@@Z   @2113
   ?save_page@DjVmDoc@@QBEXABVGURL@@ABVFile@DjVmDir@@AAV?$GMap@VGUTF8String@@V1@@@@Z   @2114
   ?set_djvm_nav@DjVmDoc@@QAEXV?$GP@VDjVmNav@@@@@Z   @2115
   ?write@DjVmDoc@@QAEXABV?$GP@VByteStream@@@@@Z   @2116
   ?write@DjVmDoc@@QAEXABV?$GP@VByteStream@@@@ABV?$GMap@VGUTF8String@@PAX@@@Z   @2117
   ?write_index@DjVmDoc@@QAEXABV?$GP@VByteStream@@@@@Z   @2118
   ??1FileRec@DjVmDir0@@UAE@XZ   @2119
   ??A?$GArrayTemplate@V?$GP@VFileRec@DjVmDir0@@@@@@QAEAAV?$GP@VFileRec@DjVmDir0@@@@H@Z   @2120
   ??A?$GArrayTemplate@V?$GP@VFileRec@DjVmDir0@@@@@@QBEABV?$GP@VFileRec@DjVmDir0@@@@H@Z   @2121
   ?add_file@DjVmDir0@@QAEXABVGUTF8String@@_NHH@Z   @2122
   ?decode@DjVmDir0@@QAEXAAVByteStream@@@Z   @2123
   ?encode@DjVmDir0@@QAEXAAVByteStream@@@Z   @2124
   ?get_file@DjVmDir0@@QAE?AV?$GP@VFileRec@DjVmDir0@@@@ABVGUTF8String@@@Z   @2125
   ?get_file@DjVmDir0@@QAE?AV?$GP@VFileRec@DjVmDir0@@@@H@Z   @2126
   ?get_or_create@?$GMapImpl@VGUTF8String@@V?$GP@VFileRec@DjVmDir0@@@@@@IAEPAUHNode@@ABVGUTF8String@@@Z   @2127
   ?get_size@DjVmDir0@@QBEHXZ   @2128
   ??0?$GArrayTemplate@D@@QAE@ABUTraits@@@Z   @2129
   ??0?$GMapTemplate@VGUTF8String@@V?$GPList@VFile@DjVmDir@@@@V2@@@QAE@XZ   @2130
   ??0File@DjVmDir@@IAE@XZ   @2131
   ??1?$GMap@VGUTF8String@@V?$GPList@VFile@DjVmDir@@@@@@QAE@XZ   @2132
   ??1?$GTArray@D@@QAE@XZ   @2133
   ??1?$MapNode@VGUTF8String@@V?$GPList@VFile@DjVmDir@@@@@@QAE@XZ   @2134
   ?check_save_name@File@DjVmDir@@QAEABVGUTF8String@@_N@Z   @2135
   ?copy@?$NormTraits@U?$MapNode@VGUTF8String@@V?$GPList@VFile@DjVmDir@@@@@@@@SAXPAXPBXHH@Z   @2136
   ?create@File@DjVmDir@@SA?AV?$GP@VFile@DjVmDir@@@@ABVGUTF8String@@00W4FILE_TYPE@12@@Z   @2137
   ?decode@DjVmDir@@QAEXABV?$GP@VByteStream@@@@@Z   @2138
   ?delete_file@DjVmDir@@QAEXABVGUTF8String@@@Z   @2139
   ?encode@DjVmDir@@QBEXABV?$GP@VByteStream@@@@_N1@Z   @2140
   ?encode@DjVmDir@@QBEXABV?$GP@VByteStream@@@@_N@Z   @2141
   ?fini@?$NormTraits@U?$MapNode@VGUTF8String@@V?$GPList@VFile@DjVmDir@@@@@@@@SAXPAXH@Z   @2142
   ?get_file_pos@DjVmDir@@QBEHPBVFile@1@@Z   @2143
   ?get_files_list@DjVmDir@@QBE?AV?$GPList@VFile@DjVmDir@@@@XZ   @2144
   ?get_files_num@DjVmDir@@QBEHXZ   @2145
   ?get_or_create@?$GMapImpl@VGUTF8String@@V?$GPList@VFile@DjVmDir@@@@@@IAEPAUHNode@@ABVGUTF8String@@@Z   @2146
   ?get_page_pos@DjVmDir@@QBEHH@Z   @2147
   ?get_pages_num@DjVmDir@@QBEHXZ   @2148
   ?get_save_name@File@DjVmDir@@QBEABVGUTF8String@@XZ   @2149
   ?get_shared_anno_file@DjVmDir@@QBE?AV?$GP@VFile@DjVmDir@@@@XZ   @2150
   ?get_str_type@File@DjVmDir@@QBE?AVGUTF8String@@XZ   @2151
   ?id_to_file@DjVmDir@@QBE?AV?$GP@VFile@DjVmDir@@@@ABVGUTF8String@@@Z   @2152
   ?init@?$NormTraits@U?$MapNode@VGUTF8String@@V?$GPList@VFile@DjVmDir@@@@@@@@SAXPAXH@Z   @2153
   ?insert_before@?$GListTemplate@V?$GP@VFile@DjVmDir@@@@VGPBase@@@@QAEXVGPosition@@ABV?$GP@VFile@DjVmDir@@@@@Z   @2154
   ?insert_file@DjVmDir@@QAEHABV?$GP@VFile@DjVmDir@@@@H@Z   @2155
   ?lea@?$NormTraits@U?$MapNode@VGUTF8String@@V?$GPList@VFile@DjVmDir@@@@@@@@SAPAXPAXH@Z   @2156
   ?name_to_file@DjVmDir@@QBE?AV?$GP@VFile@DjVmDir@@@@ABVGUTF8String@@@Z   @2157
   ?page_to_file@DjVmDir@@QBE?AV?$GP@VFile@DjVmDir@@@@H@Z   @2158
   ?pos_to_file@DjVmDir@@QBE?AV?$GP@VFile@DjVmDir@@@@HPAH@Z   @2159
   ?resolve_duplicates@DjVmDir@@QAE?AV?$GPList@VFile@DjVmDir@@@@_N@Z   @2160
   ?set_file_name@DjVmDir@@QAEXABVGUTF8String@@0@Z   @2161
   ?set_file_title@DjVmDir@@QAEXABVGUTF8String@@0@Z   @2162
   ?set_load_name@File@DjVmDir@@QAEXABVGUTF8String@@@Z   @2163
   ?set_save_name@File@DjVmDir@@IAEXABVGUTF8String@@@Z   @2164
   ?theTraits@?1??traits@?$NormTraits@U?$MapNode@VGUTF8String@@V?$GPList@VFile@DjVmDir@@@@@@@@SAABUTraits@@XZ@4U3@B   @2165
   ?title_to_file@DjVmDir@@QBE?AV?$GP@VFile@DjVmDir@@@@ABVGUTF8String@@@Z   @2166
   ?version@DjVmDir@@2HB   @2167
   ??0?$GMap@VGURL@@V?$GPList@VDataPool@@@@@@QAE@XZ   @2168
   ??0?$GP@VFCPools@@@@QAE@XZ   @2169
   ??0?$GP@VOpenFiles@DataPool@@@@QAE@XZ   @2170
   ??0DataPool@@IAE@XZ   @2171
   ??0OpenFiles_File@DataPool@@QAE@ABVGURL@@AAV?$GP@VDataPool@@@@@Z   @2172
   ??0PoolByteStream@@QAE@V?$GP@VDataPool@@@@@Z   @2173
   ??1?$GMap@VGURL@@V?$GPList@VDataPool@@@@@@QAE@XZ   @2174
   ??1?$GP@VFCPools@@@@QAE@XZ   @2175
   ??1?$GP@VOpenFiles@DataPool@@@@QAE@XZ   @2176
   ??1?$GP@VOpenFiles_File@DataPool@@@@QAE@XZ   @2177
   ??1?$GP@VReader@DataPool@@@@QAE@XZ   @2178
   ??1?$GP@VTrigger@DataPool@@@@QAE@XZ   @2179
   ??1?$GPList@VDataPool@@@@QAE@XZ   @2180
   ??1?$GPList@VOpenFiles_File@DataPool@@@@QAE@XZ   @2181
   ??1?$GPList@VReader@DataPool@@@@QAE@XZ   @2182
   ??1?$GPList@VTrigger@DataPool@@@@QAE@XZ   @2183
   ??1?$MapNode@VGURL@@V?$GPList@VDataPool@@@@@@QAE@XZ   @2184
   ??1?$SetNode@VGURL@@@@QAE@XZ   @2185
   ??1DataPool@@UAE@XZ   @2186
   ??1FCPools@@UAE@XZ   @2187
   ??1Incrementor@DataPool@@QAE@XZ   @2188
   ??1OpenFiles@DataPool@@UAE@XZ   @2189
   ??1OpenFiles_File@DataPool@@UAE@XZ   @2190
   ??1PoolByteStream@@UAE@XZ   @2191
   ??1Reader@DataPool@@UAE@XZ   @2192
   ??1Trigger@DataPool@@UAE@XZ   @2193
   ??A?$GListTemplate@V?$GP@VDataPool@@@@VGPBase@@@@QAEAAV?$GP@VDataPool@@@@VGPosition@@@Z   @2194
   ??A?$GListTemplate@V?$GP@VOpenFiles_File@DataPool@@@@VGPBase@@@@QAEAAV?$GP@VOpenFiles_File@DataPool@@@@VGPosition@@@Z   @2195
   ??A?$GListTemplate@V?$GP@VReader@DataPool@@@@VGPBase@@@@QAEAAV?$GP@VReader@DataPool@@@@VGPosition@@@Z   @2196
   ??A?$GListTemplate@V?$GP@VTrigger@DataPool@@@@VGPBase@@@@QAEAAV?$GP@VTrigger@DataPool@@@@VGPosition@@@Z   @2197
   ??BCounter@DataPool@@QBEHXZ   @2198
   ??C?$GP@VOpenFiles_File@DataPool@@@@QBEPAVOpenFiles_File@DataPool@@XZ   @2199
   ?Stop@DataPool@@2PBDB   @2200
   ?add_data@DataPool@@QAEXPBXH@Z   @2201
   ?add_data@DataPool@@QAEXPBXHH@Z   @2202
   ?add_pool@FCPools@@QAEXABVGURL@@V?$GP@VDataPool@@@@@Z   @2203
   ?add_pool@OpenFiles_File@DataPool@@QAEHAAV?$GP@VDataPool@@@@@Z   @2204
   ?add_range@BlockList@DataPool@@QAEXHH@Z   @2205
   ?add_trigger@DataPool@@QAEXHHP6AXPAX@Z0@Z   @2206
   ?add_trigger@DataPool@@QAEXHP6AXPAX@Z0@Z   @2207
   ?added_data@DataPool@@AAEXHH@Z   @2208
   ?analyze_iff@DataPool@@AAEXXZ   @2209
   ?check@GPosition@@QAEPAUNode@@PAX@Z   @2210
   ?check_triggers@DataPool@@AAEXXZ   @2211
   ?clean@FCPools@@QAEXXZ   @2212
   ?clear@BlockList@DataPool@@QAEXXZ   @2213
   ?clear_stream@DataPool@@QAEX_N@Z   @2214
   ?clear_stream@OpenFiles_File@DataPool@@QAEXXZ   @2215
   ?close_all@DataPool@@SAXXZ   @2216
   ?close_all@OpenFiles@DataPool@@QAEXXZ   @2217
   ?connect@DataPool@@QAEXABV?$GP@VDataPool@@@@HH@Z   @2218
   ?connect@DataPool@@QAEXABVGURL@@HH@Z   @2219
   ?contains@?$GListTemplate@V?$GP@VDataPool@@@@VGPBase@@@@QBE?AVGPosition@@ABV?$GP@VDataPool@@@@@Z   @2220
   ?copy@?$NormTraits@U?$MapNode@VGURL@@V?$GPList@VDataPool@@@@@@@@SAXPAXPBXHH@Z   @2221
   ?create@DataPool@@SA?AV?$GP@VDataPool@@@@ABV2@HH@Z   @2222
   ?create@DataPool@@SA?AV?$GP@VDataPool@@@@ABV?$GP@VByteStream@@@@@Z   @2223
   ?create@DataPool@@SA?AV?$GP@VDataPool@@@@ABVGURL@@HH@Z   @2224
   ?create@DataPool@@SA?AV?$GP@VDataPool@@@@XZ   @2225
   ?dec@Counter@DataPool@@QAEXXZ   @2226
   ?del_pool@FCPools@@QAEXABVGURL@@V?$GP@VDataPool@@@@@Z   @2227
   ?del_pool@OpenFiles_File@DataPool@@QAEHAAV?$GP@VDataPool@@@@@Z   @2228
   ?del_trigger@DataPool@@QAEXP6AXPAX@Z0@Z   @2229
   ?fini@?$NormTraits@U?$MapNode@VGURL@@V?$GPList@VDataPool@@@@@@@@SAXPAXH@Z   @2230
   ?get@FCPools@@SAPAV1@XZ   @2231
   ?get@OpenFiles@DataPool@@SAPAV12@XZ   @2232
   ?get_bytes@BlockList@DataPool@@QBEHHH@Z   @2233
   ?get_data@DataPool@@AAEHPAXHHH@Z   @2234
   ?get_data@DataPool@@QAEHPAXHH@Z   @2235
   ?get_length@DataPool@@QBEHXZ   @2236
   ?get_or_create@?$GMapImpl@VGURL@@V?$GPList@VDataPool@@@@@@IAEPAUHNode@@ABVGURL@@@Z   @2237
   ?get_pool@FCPools@@QAE?AV?$GP@VDataPool@@@@ABVGURL@@HH@Z   @2238
   ?get_range@BlockList@DataPool@@QBEHHH@Z   @2239
   ?get_size@DataPool@@ABEHHH@Z   @2240
   ?get_stream@DataPool@@QAE?AV?$GP@VByteStream@@@@XZ   @2241
   ?global_ptr@FCPools@@0V?$GP@VFCPools@@@@A   @2242
   ?global_ptr@OpenFiles@DataPool@@0V?$GP@VOpenFiles@DataPool@@@@A   @2243
   ?has_data@DataPool@@QAE_NHH@Z   @2244
   ?inc@Counter@DataPool@@QAEXXZ   @2245
   ?init@?$NormTraits@U?$MapNode@VGURL@@V?$GPList@VDataPool@@@@@@@@SAXPAXH@Z   @2246
   ?init@DataPool@@AAEXXZ   @2247
   ?insert_after@?$GListTemplate@HH@@QAEXVGPosition@@ABH@Z   @2248
   ?lea@?$NormTraits@U?$MapNode@VGURL@@V?$GPList@VDataPool@@@@@@@@SAPAXPAXH@Z   @2249
   ?load_file@DataPool@@QAEXXZ   @2250
   ?load_file@DataPool@@SAXABVGURL@@@Z   @2251
   ?load_file@FCPools@@QAEXABVGURL@@@Z   @2252
   ?prune@OpenFiles@DataPool@@QAEXXZ   @2253
   ?read@PoolByteStream@@UAEIPAXI@Z   @2254
   ?request_stream@OpenFiles@DataPool@@QAE?AV?$GP@VOpenFiles_File@DataPool@@@@ABVGURL@@V?$GP@VDataPool@@@@@Z   @2255
   ?restart_readers@DataPool@@AAEXXZ   @2256
   ?search@?$GListImpl@VGPBase@@@@IBEHABVGPBase@@AAVGPosition@@@Z   @2257
   ?seek@PoolByteStream@@UAEHJH_N@Z   @2258
   ?set@GEvent@@QAEXXZ   @2259
   ?set_eof@DataPool@@QAEXXZ   @2260
   ?static_trigger_cb@DataPool@@CAXPAX@Z   @2261
   ?stop@DataPool@@QAEX_N@Z   @2262
   ?stream_released@OpenFiles@DataPool@@QAEXAAV?$GP@VByteStream@@@@V?$GP@VDataPool@@@@@Z   @2263
   ?tell@PoolByteStream@@UBEJXZ   @2264
   ?theTraits@?1??traits@?$NormTraits@U?$MapNode@VGURL@@V?$GPList@VDataPool@@@@@@@@SAABUTraits@@XZ@4U3@B   @2265
   ?trigger_cb@DataPool@@AAEXXZ   @2266
   ?wait_for_data@DataPool@@AAEXABV?$GP@VReader@DataPool@@@@@Z   @2267
   ?wake_up_all_readers@DataPool@@AAEXXZ   @2268
   ?write@PoolByteStream@@UAEIPBXI@Z   @2269
   ??0?$GPBuffer@G@@QAE@AAPAGI@Z   @2270
   ??0Memory@ByteStream@@QAE@XZ   @2271
   ??0Static@ByteStream@@QAE@QBXI@Z   @2272
   ??0Stdio@ByteStream@@QAE@XZ   @2273
   ??1?$GPBuffer@PAD@@QAE@XZ   @2274
   ??1ByteStream@@UAE@XZ   @2275
   ??1Memory@ByteStream@@UAE@XZ   @2276
   ??1Static@ByteStream@@UAE@XZ   @2277
   ??1Stdio@ByteStream@@UAE@XZ   @2278
   ??1Wrapper@ByteStream@@UAE@XZ   @2279
   ?EndOfFile@ByteStream@@2PBDB   @2280
   ?copy@ByteStream@@QAEIAAV1@I@Z   @2281
   ?create@ByteStream@@SA?AV?$GP@VByteStream@@@@ABVGURL@@QBD@Z   @2282
   ?create@ByteStream@@SA?AV?$GP@VByteStream@@@@HQBD_N@Z   @2283
   ?create@ByteStream@@SA?AV?$GP@VByteStream@@@@QAU_iobuf@@QBD_N@Z   @2284
   ?create@ByteStream@@SA?AV?$GP@VByteStream@@@@QBD@Z   @2285
   ?create@ByteStream@@SA?AV?$GP@VByteStream@@@@QBXI@Z   @2286
   ?create@ByteStream@@SA?AV?$GP@VByteStream@@@@XZ   @2287
   ?create_static@ByteStream@@SA?AV?$GP@VByteStream@@@@PBXI@Z   @2288
   ?empty@Memory@ByteStream@@QAEXXZ   @2289
   ?flush@ByteStream@@UAEXXZ   @2290
   ?flush@Stdio@ByteStream@@UAEXXZ   @2291
   ?flush@Wrapper@ByteStream@@UAEXXZ   @2292
   ?format@ByteStream@@QAAIPBDZZ   @2293
   ?formatmessage@ByteStream@@QAAXPBDZZ   @2294
   ?getAsNative@ByteStream@@QAE?AVGNativeString@@XZ   @2295
   ?getAsUTF8@ByteStream@@QAE?AVGUTF8String@@XZ   @2296
   ?get_stderr@ByteStream@@SA?AV?$GP@VByteStream@@@@PBD@Z   @2297
   ?get_stdin@ByteStream@@SA?AV?$GP@VByteStream@@@@PBD@Z   @2298
   ?get_stdout@ByteStream@@SA?AV?$GP@VByteStream@@@@PBD@Z   @2299
   ?init@Memory@ByteStream@@QAE?AVGUTF8String@@QBXI@Z   @2300
   ?init@Stdio@ByteStream@@QAE?AVGUTF8String@@ABVGURL@@QBD@Z   @2301
   ?init@Stdio@ByteStream@@QAE?AVGUTF8String@@QAU_iobuf@@QBD_N@Z   @2302
   ?init@Stdio@ByteStream@@QAE?AVGUTF8String@@QBD@Z   @2303
   ?ncopy@GBaseString@@QBEHQAGH@Z   @2304
   ?read16@ByteStream@@QAEIXZ   @2305
   ?read24@ByteStream@@QAEIXZ   @2306
   ?read32@ByteStream@@QAEIXZ   @2307
   ?read8@ByteStream@@QAEIXZ   @2308
   ?read@ByteStream@@UAEIPAXI@Z   @2309
   ?read@Memory@ByteStream@@UAEIPAXI@Z   @2310
   ?read@Static@ByteStream@@UAEIPAXI@Z   @2311
   ?read@Stdio@ByteStream@@UAEIPAXI@Z   @2312
   ?read@Wrapper@ByteStream@@UAEIPAXI@Z   @2313
   ?readall@ByteStream@@QAEIPAXI@Z   @2314
   ?readat@Memory@ByteStream@@MAEIPAXIH@Z   @2315
   ?scanf@ByteStream@@QAAHPBDZZ   @2316
   ?seek@ByteStream@@UAEHJH_N@Z   @2317
   ?seek@Memory@ByteStream@@UAEHJH_N@Z   @2318
   ?seek@Static@ByteStream@@UAEHJH_N@Z   @2319
   ?seek@Stdio@ByteStream@@UAEHJH_N@Z   @2320
   ?size@Memory@ByteStream@@UBEHXZ   @2321
   ?size@Static@ByteStream@@UBEHXZ   @2322
   ?tell@Memory@ByteStream@@UBEJXZ   @2323
   ?tell@Static@ByteStream@@UBEJXZ   @2324
   ?tell@Stdio@ByteStream@@UBEJXZ   @2325
   ?tell@Wrapper@ByteStream@@UBEJXZ   @2326
   ?writall@ByteStream@@QAEIPBXI@Z   @2327
   ?write16@ByteStream@@QAEXI@Z   @2328
   ?write24@ByteStream@@QAEXI@Z   @2329
   ?write32@ByteStream@@QAEXI@Z   @2330
   ?write8@ByteStream@@QAEXI@Z   @2331
   ?write@ByteStream@@UAEIPBXI@Z   @2332
   ?write@Memory@ByteStream@@UAEIPBXI@Z   @2333
   ?write@Stdio@ByteStream@@UAEIPBXI@Z   @2334
   ?write@Wrapper@ByteStream@@UAEIPBXI@Z   @2335
   ?writemessage@ByteStream@@QAEXPBD@Z   @2336
   ?writestring@ByteStream@@QAEIABVGNativeString@@@Z   @2337
   ?writestring@ByteStream@@QAEIABVGUTF8String@@@Z   @2338
   ??0Encode@BSByteStream@@QAE@V?$GP@VByteStream@@@@@Z   @2339
   ??0_BSort@@QAE@PAEH@Z   @2340
   ??1Encode@BSByteStream@@UAE@XZ   @2341
   ??1_BSort@@QAE@XZ   @2342
   ?create@BSByteStream@@SA?AV?$GP@VByteStream@@@@V2@H@Z   @2343
   ?encode@Encode@BSByteStream@@IAEIXZ   @2344
   ?encoder@ZPCodec@@QAEXHAAE@Z   @2345
   ?flush@Encode@BSByteStream@@UAEXXZ   @2346
   ?init@Encode@BSByteStream@@QAEXH@Z   @2347
   ?pivot3d@_BSort@@AAEEPAEHH@Z   @2348
   ?pivot3r@_BSort@@AAEHPAHHH@Z   @2349
   ?quicksort3d@_BSort@@AAEXHHH@Z   @2350
   ?quicksort3r@_BSort@@AAEXHHH@Z   @2351
   ?radixsort16@_BSort@@AAEXXZ   @2352
   ?radixsort8@_BSort@@AAEXXZ   @2353
   ?ranksort@_BSort@@AAEXHHH@Z   @2354
   ?run@_BSort@@QAEXAAH@Z   @2355
   ?write@Encode@BSByteStream@@UAEIPBXI@Z   @2356
   ??0BSByteStream@@IAE@V?$GP@VByteStream@@@@@Z   @2357
   ??0Decode@BSByteStream@@QAE@V?$GP@VByteStream@@@@@Z   @2358
   ??1BSByteStream@@UAE@XZ   @2359
   ??1Decode@BSByteStream@@UAE@XZ   @2360
   ?create@BSByteStream@@SA?AV?$GP@VByteStream@@@@V2@@Z   @2361
   ?decode@Decode@BSByteStream@@IAEIXZ   @2362
   ?flush@Decode@BSByteStream@@UAEXXZ   @2363
   ?init@Decode@BSByteStream@@QAEXXZ   @2364
   ?read@Decode@BSByteStream@@UAEIPAXI@Z   @2365
   ?tell@BSByteStream@@UBEJXZ   @2366
   ??0ArrayRep@@QAE@ABV0@@Z   @2367
   ??0ArrayRep@@QAE@HP6AXPAXHH@Z1P6AX0HHPBXHH@Z3P6AX0HH2H@Z@Z   @2368
   ??0ArrayRep@@QAE@HP6AXPAXHH@Z1P6AX0HHPBXHH@Z3P6AX0HH2H@ZH@Z   @2369
   ??0ArrayRep@@QAE@HP6AXPAXHH@Z1P6AX0HHPBXHH@Z3P6AX0HH2H@ZHH@Z   @2370
   ??1ArrayRep@@UAE@XZ   @2371
   ??1_ArrayRep@@UAE@XZ   @2372
   ??4ArrayRep@@QAEAAV0@ABV0@@Z   @2373
   ?del@ArrayRep@@QAEXHI@Z   @2374
   ?get_data@ByteStream@@QAE?AV?$TArray@D@@XZ   @2375
   ?ins@ArrayRep@@QAEXHPBXI@Z   @2376
   ?resize@ArrayRep@@QAEXHH@Z   @2377
   ?shift@ArrayRep@@QAEXH@Z   @2378
